(dp0
S'16079'
p1
F12882.0
sS'33017'
p2
F130633.0
sS'16073'
p3
F11823.0
sS'16071'
p4
F4531.0
sS'16077'
p5
F7681.0
sS'16075'
p6
F23951.0
sS'48093'
p7
F13635.0
sS'06115'
p8
F78668.0
sS'06111'
p9
F846006.0
sS'06113'
p10
F220500.0
sS'01129'
p11
F16326.0
sS'46111'
p12
F2344.0
sS'40145'
p13
F81289.0
sS'02100'
p14
F2530.0
sS'02105'
p15
F2148.0
sS'40147'
p16
F51527.0
sS'19159'
p17
F4894.0
sS'39109'
p18
F106987.0
sS'19155'
p19
F93206.0
sS'39105'
p20
F22907.0
sS'19157'
p21
F18504.0
sS'39107'
p22
F41172.0
sS'19151'
p23
F6619.0
sS'39101'
p24
F65093.0
sS'19153'
p25
F490161.0
sS'39103'
p26
F179746.0
sS'40029'
p27
F5495.0
sS'40143'
p28
F651552.0
sS'48025'
p29
F32565.0
sS'22009'
p30
F40144.0
sS'40027'
p31
F284014.0
sS'22001'
p32
F62045.0
sS'22003'
p33
F25627.0
sS'22005'
p34
F126604.0
sS'13029'
p35
F39627.0
sS'22007'
p36
F21891.0
sS'06029'
p37
F900202.0
sS'06021'
p38
F28393.0
sS'40023'
p39
F14672.0
sS'06023'
p40
F135558.0
sS'06025'
p41
F181215.0
sS'06027'
p42
F18039.0
sS'27173'
p43
F9709.0
sS'27171'
p44
F138377.0
sS'51600'
p45
F24019.0
sS'33013'
p46
F151391.0
sS'21101'
p47
F45210.0
sS'21103'
p48
F16126.0
sS'21105'
p49
F4380.0
sS'21107'
p50
F44686.0
sS'21109'
p51
F13329.0
sS'32013'
p52
F16831.0
sS'32011'
p53
F2029.0
sS'51840'
p54
F28078.0
sS'32017'
p55
F5183.0
sS'32015'
p56
F5532.0
sS'47081'
p57
F25178.0
sS'32019'
p58
F57510.0
sS'26157'
p59
F52245.0
sS'41001'
p60
F16124.0
sS'26155'
p61
F68122.0
sS'42057'
p62
F14530.0
sS'12019'
p63
F219252.0
sS'42051'
p64
F129274.0
sS'26151'
p65
F41170.0
sS'42053'
p66
F7247.0
sS'12015'
p67
F188910.0
sS'12017'
p68
F149657.0
sS'12011'
p69
F1952778.0
sS'42059'
p70
F36233.0
sS'12013'
p71
F14105.0
sS'51115'
p72
F8834.0
sS'46009'
p73
F6901.0
sS'55109'
p74
F90687.0
sS'51111'
p75
F12196.0
sS'51113'
p76
F13261.0
sS'46003'
p77
F2751.0
sS'46007'
p78
F3365.0
sS'53007'
p79
F77200.0
sS'46005'
p80
F18453.0
sS'17031'
p81
F5150233.0
sS'17033'
p82
F18667.0
sS'48021'
p83
F88723.0
sS'17035'
p84
F10766.0
sS'05139'
p85
F38682.0
sS'05137'
p86
F12506.0
sS'05135'
p87
F17442.0
sS'05133'
p88
F17007.0
sS'05131'
p89
F127827.0
sS'46117'
p90
F3098.0
sS'54027'
p91
F23175.0
sS'26023'
p92
F43517.0
sS'05003'
p93
F19657.0
sS'26021'
p94
F153401.0
sS'05001'
p95
F17486.0
sS'26027'
p96
F51787.0
sS'05007'
p97
F279141.0
sS'26025'
p98
F134159.0
sS'05005'
p99
F41932.0
sS'12121'
p100
F44417.0
sS'12123'
p101
F21569.0
sS'05009'
p102
F37432.0
sS'12125'
p103
F15237.0
sS'12127'
p104
F553284.0
sS'48261'
p105
F404.0
sS'20153'
p106
F2530.0
sS'01025'
p107
F23622.0
sS'01027'
p108
F13235.0
sS'01021'
p109
F44428.0
sS'01023'
p110
F12589.0
sS'01029'
p111
F14910.0
sS'37009'
p112
F27203.0
sS'37007'
p113
F24446.0
sS'37005'
p114
F11137.0
sS'37003'
p115
F37497.0
sS'37001'
p116
F169509.0
sS'48365'
p117
F23194.0
sS'36029'
p118
F918702.0
sS'42129'
p119
F348899.0
sS'48237'
p120
F8935.0
sS'36023'
p121
F47581.0
sS'36021'
p122
F59461.0
sS'36027'
p123
F294218.0
sS'36025'
p124
F44135.0
sS'48091'
p125
F156209.0
sS'42125'
p126
F206865.0
sS'48235'
p127
F1536.0
sS'48233'
p128
F20938.0
sS'51065'
p129
F27270.0
sS'48149'
p130
F25346.0
sS'48419'
p131
F25274.0
sS'48145'
p132
F17297.0
sS'48147'
p133
F35514.0
sS'48141'
p134
F839238.0
sS'48143'
p135
F42698.0
sS'01111'
p136
F22722.0
sS'01113'
p137
F57961.0
sS'01115'
p138
F89512.0
sS'01117'
p139
F217702.0
sS'01119'
p140
F12427.0
sS'45061'
p141
F16828.0
sS'13059'
p142
F128331.0
sS'45065'
p143
F9463.0
sS'45067'
p144
F30657.0
sS'13053'
p145
F10907.0
sS'13051'
p146
F289430.0
sS'13057'
p147
F258773.0
sS'13055'
p148
F24789.0
sS'48231'
p149
F98594.0
sS'01045'
p150
F49172.0
sS'40073'
p151
F15765.0
sS'37177'
p152
F4016.0
sS'37175'
p153
F34385.0
sS'37173'
p154
F14271.0
sS'37171'
p155
F71783.0
sS'37179'
p156
F239859.0
sS'08053'
p157
F820.0
sS'08051'
p158
F17462.0
sS'48029'
p159
F2003554.0
sS'08057'
p160
F1392.0
sS'08055'
p161
F6897.0
sS'08059'
p162
F582881.0
sS'54089'
p163
F12573.0
sS'31129'
p164
F4148.0
sS'31127'
p165
F6972.0
sS'31125'
p166
F3519.0
sS'31123'
p167
F4642.0
sS'31121'
p168
F7755.0
sS'18149'
p169
F22995.0
sS'54085'
p170
F9554.0
sS'37125'
p171
F100880.0
sS'18141'
p172
F271826.0
sS'18143'
p173
F23873.0
sS'18145'
p174
F44729.0
sS'18147'
p175
F20277.0
sS'37127'
p176
F94298.0
sS'37121'
p177
F14964.0
sS'29109'
p178
F38355.0
sS'46011'
p179
F35077.0
sS'05093'
p180
F40651.0
sS'29101'
p181
F54062.0
sS'29103'
p182
F3959.0
sS'37123'
p183
F27173.0
sS'29105'
p184
F35723.0
sS'29107'
p185
F32708.0
sS'55111'
p186
F64442.0
sS'55113'
p187
F16558.0
sS'55115'
p188
F40899.0
sS'55117'
p189
F115340.0
sS'48303'
p190
F310569.0
sS'55119'
p191
F20343.0
sS'34041'
p192
F105267.0
sS'46013'
p193
F38839.0
sS'48301'
p194
F169.0
sS'48307'
p195
F7984.0
sS'51161'
p196
F94186.0
sS'54081'
p197
F73361.0
sS'48305'
p198
F5951.0
sS'47035'
p199
F60520.0
sS'47037'
p200
F694144.0
sS'47031'
p201
F56520.0
sS'47033'
p202
F14230.0
sS'06109'
p203
F54478.0
sS'06107'
p204
F466195.0
sS'06105'
p205
F12285.0
sS'47039'
p206
F11663.0
sS'06103'
p207
F65084.0
sS'06101'
p208
F96971.0
sS'46137'
p209
F2756.0
sS'55029'
p210
F27668.0
sS'19149'
p211
F25177.0
sS'39171'
p212
F36692.0
sS'19147'
p213
F8886.0
sS'39173'
p214
F130817.0
sS'19145'
p215
F15107.0
sS'39175'
p216
F21772.0
sS'19143'
p217
F5958.0
sS'55023'
p218
F16131.0
sS'19141'
p219
F13753.0
sS'54083'
p220
F28695.0
sS'40141'
p221
F7250.0
sS'30049'
p222
F69432.0
sS'22019'
p223
F203436.0
sS'22013'
p224
F13241.0
sS'22011'
p225
F37497.0
sS'22017'
p226
F240204.0
sS'22015'
p227
F127039.0
sS'46129'
p228
F5435.0
sS'06039'
p229
F157327.0
sS'06033'
p230
F64386.0
sS'06031'
p231
F152940.0
sS'06037'
p232
F10039107.0
sS'06035'
p233
F30573.0
sS'27143'
p234
F14865.0
sS'16065'
p235
F39907.0
sS'27141'
p236
F97238.0
sS'16067'
p237
F21039.0
sS'27147'
p238
F36649.0
sS'16061'
p239
F3838.0
sS'27145'
p240
F161075.0
sS'16063'
p241
F5366.0
sS'51510'
p242
F159428.0
sS'27149'
p243
F9805.0
sS'51530'
p244
F6478.0
sS'39009'
p245
F65327.0
sS'16069'
p246
F40408.0
sS'21113'
p247
F54115.0
sS'21111'
p248
F766757.0
sS'21117'
p249
F166998.0
sS'21115'
p250
F22188.0
sS'48447'
p251
F1501.0
sS'21119'
p252
F14806.0
sS'56045'
p253
F6927.0
sS'32009'
p254
F873.0
sS'32005'
p255
F48905.0
sS'32007'
p256
F52778.0
sS'32001'
p257
F24909.0
sS'32003'
p258
F2266715.0
sS'42021'
p259
F130192.0
sS'26141'
p260
F12592.0
sS'42023'
p261
F4447.0
sS'26143'
p262
F24019.0
sS'42025'
p263
F64182.0
sS'26145'
p264
F190539.0
sS'42027'
p265
F162385.0
sS'12009'
p266
F601942.0
sS'42029'
p267
F524989.0
sS'26149'
p268
F60964.0
sS'12005'
p269
F174705.0
sS'12003'
p270
F29210.0
sS'12001'
p271
F269043.0
sS'51107'
p272
F413538.0
sS'51105'
p273
F23423.0
sS'51103'
p274
F10603.0
sS'51101'
p275
F17148.0
sS'51109'
p276
F37591.0
sS'05109'
p277
F10718.0
sS'05103'
p278
F23382.0
sS'05101'
p279
F7753.0
sS'05107'
p280
F17782.0
sS'05105'
p281
F10455.0
sS'13289'
p282
F8120.0
sS'13287'
p283
F7985.0
sS'51127'
p284
F23091.0
sS'13285'
p285
F69922.0
sS'13283'
p286
F6901.0
sS'13281'
p287
F12037.0
sS'46099'
p288
F193134.0
sS'48121'
p289
F887207.0
sS'30061'
p290
F4397.0
sS'48219'
p291
F23021.0
sS'48127'
p292
F10124.0
sS'53039'
p293
F22425.0
sS'30063'
p294
F119600.0
sS'26039'
p295
F14029.0
sS'05039'
p296
F7009.0
sS'49047'
p297
F35734.0
sS'05037'
p298
F16419.0
sS'12133'
p299
F25473.0
sS'05035'
p300
F47955.0
sS'26037'
p301
F79595.0
sS'05033'
p302
F63257.0
sS'26031'
p303
F25276.0
sS'05031'
p304
F110332.0
sS'26033'
p305
F37349.0
sS'49045'
p306
F72259.0
sS'48229'
p307
F4886.0
sS'20089'
p308
F2879.0
sS'20087'
p309
F19043.0
sS'20085'
p310
F13171.0
sS'30067'
p311
F16606.0
sS'20083'
p312
F1794.0
sS'20081'
p313
F3968.0
sS'49043'
p314
F42145.0
sS'01051'
p315
F81209.0
sS'01053'
p316
F36633.0
sS'01055'
p317
F102268.0
sS'01057'
p318
F16302.0
sS'01059'
p319
F31362.0
sS'49041'
p320
F21620.0
sS'36017'
p321
F47207.0
sS'37019'
p322
F142820.0
sS'13199'
p323
F21167.0
sS'36013'
p324
F126903.0
sS'36011'
p325
F76576.0
sS'13193'
p326
F12947.0
sS'37011'
p327
F17557.0
sS'13191'
p328
F14378.0
sS'37013'
p329
F46994.0
sS'13197'
p330
F8359.0
sS'37015'
p331
F18947.0
sS'13195'
p332
F29880.0
sS'37017'
p333
F32722.0
sS'48311'
p334
F743.0
sS'48313'
p335
F14284.0
sS'48315'
p336
F9854.0
sS'48317'
p337
F5771.0
sS'48319'
p338
F4274.0
sS'48139'
p339
F184826.0
sS'48429'
p340
F9366.0
sS'48131'
p341
F11157.0
sS'48133'
p342
F18360.0
sS'48135'
p343
F166223.0
sS'48137'
p344
F1932.0
sS'47175'
p345
F5872.0
sS'13067'
p346
F760141.0
sS'36075'
p347
F117124.0
sS'13065'
p348
F6618.0
sS'13063'
p349
F292256.0
sS'55011'
p350
F13031.0
sS'13061'
p351
F2834.0
sS'47177'
p352
F41277.0
sS'47069'
p353
F25050.0
sS'13069'
p354
F43273.0
sS'13265'
p355
F1537.0
sS'13267'
p356
F25286.0
sS'13261'
p357
F29524.0
sS'13263'
p358
F6195.0
sS'13269'
p359
F8020.0
sS'42055'
p360
F155027.0
sS'45089'
p361
F30368.0
sS'40089'
p362
F32832.0
sS'48047'
p363
F7093.0
sS'48217'
p364
F36649.0
sS'48041'
p365
F229211.0
sS'48043'
p366
F9203.0
sS'40081'
p367
F34877.0
sS'26153'
p368
F8094.0
sS'40083'
p369
F48011.0
sS'40085'
p370
F10253.0
sS'40087'
p371
F40474.0
sS'20065'
p372
F2482.0
sS'37161'
p373
F67029.0
sS'20067'
p374
F7150.0
sS'37163'
p375
F63531.0
sS'20061'
p376
F31670.0
sS'37165'
p377
F34823.0
sS'20063'
p378
F2636.0
sS'37167'
p379
F62806.0
sS'36079'
p380
F98320.0
sS'20069'
p381
F5988.0
sS'48351'
p382
F13595.0
sS'08069'
p383
F356899.0
sS'08067'
p384
F56221.0
sS'08065'
p385
F8127.0
sS'45081'
p386
F20473.0
sS'08063'
p387
F7097.0
sS'08061'
p388
F1406.0
sS'31119'
p389
F35099.0
sS'31113'
p390
F748.0
sS'31111'
p391
F34914.0
sS'31117'
p392
F494.0
sS'31115'
p393
F664.0
sS'48211'
p394
F3819.0
sS'08085'
p395
F42758.0
sS'08087'
p396
F29068.0
sS'18159'
p397
F15148.0
sS'08081'
p398
F13283.0
sS'26159'
p399
F75677.0
sS'08083'
p400
F26183.0
sS'18153'
p401
F20669.0
sS'18151'
p402
F34594.0
sS'08089'
p403
F18278.0
sS'18157'
p404
F195732.0
sS'18155'
p405
F10751.0
sS'51117'
p406
F30587.0
sS'29119'
p407
F22837.0
sS'29113'
p408
F59013.0
sS'29111'
p409
F9776.0
sS'29117'
p410
F15227.0
sS'29115'
p411
F11920.0
sS'51033'
p412
F30725.0
sS'55063'
p413
F118016.0
sS'51031'
p414
F54885.0
sS'54059'
p415
F23424.0
sS'55065'
p416
F16665.0
sS'51037'
p417
F11880.0
sS'55103'
p418
F17252.0
sS'18007'
p419
F8748.0
sS'55101'
p420
F196311.0
sS'55107'
p421
F14178.0
sS'55105'
p422
F163354.0
sS'51119'
p423
F10582.0
sS'51035'
p424
F29791.0
sS'55069'
p425
F27593.0
sS'48055'
p426
F43664.0
sS'48363'
p427
F29189.0
sS'38059'
p428
F31364.0
sS'02122'
p429
F58708.0
sS'47025'
p430
F31959.0
sS'47023'
p431
F17297.0
sS'47021'
p432
F40667.0
sS'47029'
p433
F36004.0
sS'29199'
p434
F4902.0
sS'17037'
p435
F104897.0
sS'19179'
p436
F34969.0
sS'39169'
p437
F115710.0
sS'17039'
p438
F15638.0
sS'19173'
p439
F6121.0
sS'39163'
p440
F13085.0
sS'19171'
p441
F16854.0
sS'39161'
p442
F28275.0
sS'19177'
p443
F7044.0
sS'39167'
p444
F59911.0
sS'19175'
p445
F12241.0
sS'39165'
p446
F234602.0
sS'22027'
p447
F15670.0
sS'22025'
p448
F9494.0
sS'22023'
p449
F6973.0
sS'22021'
p450
F9918.0
sS'22029'
p451
F19259.0
sS'06007'
p452
F219186.0
sS'06005'
p453
F39752.0
sS'06003'
p454
F1129.0
sS'06001'
p455
F1671329.0
sS'06009'
p456
F45905.0
sS'51620'
p457
F7967.0
sS'02016'
p458
F5634.0
sS'02013'
p459
F3337.0
sS'16011'
p460
F46811.0
sS'39017'
p461
F383134.0
sS'16013'
p462
F23021.0
sS'39015'
p463
F43432.0
sS'16015'
p464
F7831.0
sS'27159'
p465
F13682.0
sS'16017'
p466
F45739.0
sS'39011'
p467
F45656.0
sS'16019'
p468
F119062.0
sS'27155'
p469
F3259.0
sS'27157'
p470
F21627.0
sS'27151'
p471
F9266.0
sS'27153'
p472
F24664.0
sS'22117'
p473
F46194.0
sS'21129'
p474
F7403.0
sS'21127'
p475
F15317.0
sS'48367'
p476
F142878.0
sS'21125'
p477
F60813.0
sS'21123'
p478
F14398.0
sS'22115'
p479
F47429.0
sS'21121'
p480
F31145.0
sS'16059'
p481
F8027.0
sS'46061'
p482
F3453.0
sS'40001'
p483
F22194.0
sS'12039'
p484
F45660.0
sS'42031'
p485
F38438.0
sS'46065'
p486
F17526.0
sS'22111'
p487
F22108.0
sS'46067'
p488
F7291.0
sS'42035'
p489
F38632.0
sS'12033'
p490
F318316.0
sS'12031'
p491
F957755.0
sS'42039'
p492
F84629.0
sS'12037'
p493
F12125.0
sS'40003'
p494
F5702.0
sS'12035'
p495
F115081.0
sS'51133'
p496
F12095.0
sS'51131'
p497
F11710.0
sS'51137'
p498
F37051.0
sS'51135'
p499
F15232.0
sS'40005'
p500
F13758.0
sS'51139'
p501
F23902.0
sS'16057'
p502
F40108.0
sS'31177'
p503
F20729.0
sS'40007'
p504
F5311.0
sS'13299'
p505
F35734.0
sS'22119'
p506
F38340.0
sS'13291'
p507
F24511.0
sS'13293'
p508
F26320.0
sS'13295'
p509
F69761.0
sS'51061'
p510
F71222.0
sS'13297'
p511
F94593.0
sS'12107'
p512
F74521.0
sS'12105'
p513
F724777.0
sS'12103'
p514
F974996.0
sS'12101'
p515
F553947.0
sS'02240'
p516
F6893.0
sS'12109'
p517
F264672.0
sS'26049'
p518
F405813.0
sS'05029'
p519
F20846.0
sS'26041'
p520
F35784.0
sS'05021'
p521
F14551.0
sS'26043'
p522
F25239.0
sS'05023'
p523
F24919.0
sS'26045'
p524
F110268.0
sS'05025'
p525
F7956.0
sS'26047'
p526
F33415.0
sS'05027'
p527
F23457.0
sS'20099'
p528
F19618.0
sS'48239'
p529
F14760.0
sS'20091'
p530
F602401.0
sS'20093'
p531
F3838.0
sS'20095'
p532
F7152.0
sS'20097'
p533
F2475.0
sS'13185'
p534
F117406.0
sS'13187'
p535
F33610.0
sS'13181'
p536
F7921.0
sS'13183'
p537
F19559.0
sS'01049'
p538
F71513.0
sS'13189'
p539
F21312.0
sS'12129'
p540
F33739.0
sS'36003'
p541
F46091.0
sS'36005'
p542
F1418207.0
sS'36007'
p543
F190488.0
sS'36009'
p544
F76117.0
sS'45019'
p545
F411406.0
sS'05115'
p546
F64072.0
sS'05117'
p547
F8062.0
sS'05111'
p548
F23528.0
sS'05113'
p549
F19964.0
sS'48309'
p550
F256623.0
sS'05119'
p551
F391911.0
sS'48435'
p552
F3776.0
sS'48437'
p553
F7397.0
sS'48431'
p554
F1291.0
sS'48433'
p555
F1350.0
sS'48439'
p556
F2102515.0
sS'53027'
p557
F75061.0
sS'48129'
p558
F3278.0
sS'48123'
p559
F20160.0
sS'30045'
p560
F2007.0
sS'26029'
p561
F26143.0
sS'48125'
p562
F2211.0
sS'13071'
p563
F45600.0
sS'13073'
p564
F156714.0
sS'13075'
p565
F17270.0
sS'13077'
p566
F148509.0
sS'13079'
p567
F12404.0
sS'13277'
p568
F40644.0
sS'13275'
p569
F44451.0
sS'13273'
p570
F8531.0
sS'13271'
p571
F15860.0
sS'45087'
p572
F27316.0
sS'45085'
p573
F106721.0
sS'45083'
p574
F319785.0
sS'13279'
p575
F26830.0
sS'18099'
p576
F46258.0
sS'18093'
p577
F45370.0
sS'18091'
p578
F109888.0
sS'18097'
p579
F964582.0
sS'18095'
p580
F129569.0
sS'27113'
p581
F14119.0
sS'48057'
p582
F21290.0
sS'40099'
p583
F14073.0
sS'48053'
p584
F48155.0
sS'48051'
p585
F18443.0
sS'40093'
p586
F7629.0
sS'40091'
p587
F19596.0
sS'40097'
p588
F41100.0
sS'40095'
p589
F16931.0
sS'20077'
p590
F5436.0
sS'20075'
p591
F2539.0
sS'37199'
p592
F18069.0
sS'20073'
p593
F5982.0
sS'20071'
p594
F1232.0
sS'37195'
p595
F81801.0
sS'37197'
p596
F37667.0
sS'37191'
p597
F123131.0
sS'37193'
p598
F68412.0
sS'20079'
p599
F34429.0
sS'08079'
p600
F769.0
sS'48369'
p601
F9605.0
sS'08071'
p602
F14506.0
sS'08073'
p603
F5701.0
sS'08075'
p604
F22409.0
sS'08077'
p605
F154210.0
sS'18167'
p606
F107038.0
sS'28021'
p607
F8988.0
sS'18165'
p608
F15498.0
sS'18163'
p609
F181451.0
sS'18161'
p610
F7054.0
sS'28023'
p611
F15541.0
sS'18169'
p612
F30996.0
sS'08097'
p613
F17767.0
sS'08095'
p614
F4265.0
sS'08093'
p615
F18845.0
sS'08091'
p616
F4952.0
sS'28025'
p617
F19316.0
sS'08099'
p618
F12172.0
sS'29127'
p619
F28530.0
sS'48399'
p620
F10264.0
sS'29125'
p621
F8697.0
sS'16023'
p622
F2597.0
sS'29123'
p623
F12088.0
sS'28027'
p624
F22124.0
sS'29121'
p625
F15117.0
sS'51595'
p626
F5346.0
sS'20139'
p627
F15949.0
sS'29129'
p628
F3617.0
sS'16025'
p629
F1106.0
sS'16027'
p630
F229849.0
sS'35049'
p631
F150358.0
sS'35045'
p632
F123958.0
sS'35047'
p633
F27277.0
sS'35041'
p634
F18500.0
sS'35043'
p635
F146748.0
sS'48391'
p636
F6948.0
sS'48393'
p637
F854.0
sS'55139'
p638
F171907.0
sS'55137'
p639
F24443.0
sS'20137'
p640
F5361.0
sS'55135'
p641
F50990.0
sS'55133'
p642
F404198.0
sS'55131'
p643
F136034.0
sS'31105'
p644
F3632.0
sS'31107'
p645
F8332.0
sS'31101'
p646
F8034.0
sS'31103'
p647
F806.0
sS'31109'
p648
F319090.0
sS'37103'
p649
F9419.0
sS'47013'
p650
F39842.0
sS'47011'
p651
F108110.0
sS'47017'
p652
F27767.0
sS'47015'
p653
F14678.0
sS'47019'
p654
F56391.0
sS'39157'
p655
F91987.0
sS'19165'
p656
F11454.0
sS'39155'
p657
F197974.0
sS'19167'
p658
F34855.0
sS'27019'
p659
F105089.0
sS'19161'
p660
F9721.0
sS'39151'
p661
F370606.0
sS'19163'
p662
F172943.0
sS'27015'
p663
F25008.0
sS'27017'
p664
F35871.0
sS'27011'
p665
F4991.0
sS'19169'
p666
F97117.0
sS'27013'
p667
F67653.0
sS'53011'
p668
F488241.0
sS'55009'
p669
F264542.0
sS'51041'
p670
F352802.0
sS'55003'
p671
F15562.0
sS'51580'
p672
F5538.0
sS'37109'
p673
F86111.0
sS'55007'
p674
F15036.0
sS'55005'
p675
F45244.0
sS'22031'
p676
F27463.0
sS'22033'
p677
F440059.0
sS'22035'
p678
F6861.0
sS'22037'
p679
F19135.0
sS'22039'
p680
F33395.0
sS'06011'
p681
F21547.0
sS'06013'
p682
F1153526.0
sS'06015'
p683
F27812.0
sS'06017'
p684
F192843.0
sS'06019'
p685
F999101.0
sS'51630'
p686
F29036.0
sS'02068'
p687
F2097.0
sS'02060'
p688
F836.0
sS'06087'
p689
F273213.0
sS'27129'
p690
F14548.0
sS'16003'
p691
F4294.0
sS'39021'
p692
F38885.0
sS'16001'
p693
F481587.0
sS'39027'
p694
F41968.0
sS'16007'
p695
F6125.0
sS'39025'
p696
F206428.0
sS'16005'
p697
F87808.0
sS'27121'
p698
F11249.0
sS'27123'
p699
F550321.0
sS'16009'
p700
F9298.0
sS'27125'
p701
F4055.0
sS'27127'
p702
F15170.0
sS'48361'
p703
F83396.0
sS'21139'
p704
F9194.0
sS'21131'
p705
F9877.0
sS'21133'
p706
F21553.0
sS'21135'
p707
F13275.0
sS'21137'
p708
F24549.0
sS'12027'
p709
F38001.0
sS'12021'
p710
F384902.0
sS'12023'
p711
F71686.0
sS'46115'
p712
F6376.0
sS'19087'
p713
F19954.0
sS'12029'
p714
F16826.0
sS'46073'
p715
F2013.0
sS'42127'
p716
F51361.0
sS'30081'
p717
F43806.0
sS'42009'
p718
F47888.0
sS'46075'
p719
F903.0
sS'06085'
p720
F1927852.0
sS'42005'
p721
F64735.0
sS'46079'
p722
F12797.0
sS'42003'
p723
F1216045.0
sS'42001'
p724
F103009.0
sS'42121'
p725
F50668.0
sS'51125'
p726
F14930.0
sS'42123'
p727
F39191.0
sS'51121'
p728
F98535.0
sS'48027'
p729
F362924.0
sS'46053'
p730
F4185.0
sS'40069'
p731
F11085.0
sS'48023'
p732
F3509.0
sS'12111'
p733
F328297.0
sS'12113'
p734
F184313.0
sS'12115'
p735
F433742.0
sS'12117'
p736
F471826.0
sS'12119'
p737
F132420.0
sS'40063'
p738
F13279.0
sS'26059'
p739
F45605.0
sS'17199'
p740
F66597.0
sS'17197'
p741
F690743.0
sS'26053'
p742
F13975.0
sS'17195'
p743
F55175.0
sS'26051'
p744
F25449.0
sS'17193'
p745
F13537.0
sS'26057'
p746
F40711.0
sS'17191'
p747
F16215.0
sS'26055'
p748
F93088.0
sS'48209'
p749
F230191.0
sS'48203'
p750
F66553.0
sS'40067'
p751
F6002.0
sS'41069'
p752
F1332.0
sS'48207'
p753
F5658.0
sS'48205'
p754
F5576.0
sS'17175'
p755
F5342.0
sS'17177'
p756
F44498.0
sS'17171'
p757
F4951.0
sS'40065'
p758
F24530.0
sS'17173'
p759
F21634.0
sS'01077'
p760
F92729.0
sS'01075'
p761
F13805.0
sS'17179'
p762
F131803.0
sS'01071'
p763
F51626.0
sS'51141'
p764
F17608.0
sS'48339'
p765
F607391.0
sS'48337'
p766
F19818.0
sS'48335'
p767
F8545.0
sS'48333'
p768
F4873.0
sS'48331'
p769
F24823.0
sS'48117'
p770
F18546.0
sS'48115'
p771
F12728.0
sS'48113'
p772
F2635516.0
sS'48111'
p773
F7287.0
sS'40153'
p774
F20211.0
sS'40151'
p775
F8793.0
sS'48119'
p776
F5331.0
sS'36001'
p777
F305506.0
sS'48417'
p778
F3265.0
sS'48415'
p779
F16703.0
sS'13089'
p780
F759297.0
sS'13085'
p781
F26108.0
sS'13087'
p782
F26404.0
sS'13081'
p783
F22372.0
sS'13083'
p784
F16116.0
sS'26147'
p785
F159128.0
sS'13243'
p786
F6778.0
sS'13241'
p787
F17137.0
sS'13247'
p788
F90896.0
sS'13245'
p789
F202518.0
sS'36101'
p790
F95379.0
sS'13249'
p791
F5257.0
sS'48411'
p792
F6055.0
sS'36105'
p793
F75432.0
sS'36107'
p794
F48203.0
sS'34031'
p795
F501826.0
sS'48063'
p796
F13094.0
sS'48061'
p797
F423163.0
sS'48067'
p798
F30026.0
sS'48065'
p799
F5926.0
sS'48069'
p800
F7530.0
sS'20043'
p801
F7600.0
sS'20041'
p802
F18466.0
sS'20047'
p803
F2798.0
sS'20045'
p804
F122259.0
sS'02275'
p805
F2502.0
sS'37187'
p806
F11580.0
sS'20049'
p807
F2530.0
sS'37185'
p808
F19731.0
sS'37183'
p809
F1111761.0
sS'37181'
p810
F44535.0
sS'01095'
p811
F96774.0
sS'01097'
p812
F413210.0
sS'01091'
p813
F18863.0
sS'34039'
p814
F556341.0
sS'01093'
p815
F29709.0
sS'01099'
p816
F20733.0
sS'18171'
p817
F8265.0
sS'18173'
p818
F62998.0
sS'18175'
p819
F28036.0
sS'18177'
p820
F65884.0
sS'18179'
p821
F28296.0
sS'54035'
p822
F28576.0
sS'54037'
p823
F57146.0
sS'54031'
p824
F13776.0
sS'54033'
p825
F67256.0
sS'54039'
p826
F178124.0
sS'29131'
p827
F25619.0
sS'29133'
p828
F13180.0
sS'29135'
p829
F16132.0
sS'29137'
p830
F8644.0
sS'29139'
p831
F11551.0
sS'18085'
p832
F79456.0
sS'18087'
p833
F39614.0
sS'18081'
p834
F158167.0
sS'18083'
p835
F36594.0
sS'18089'
p836
F485493.0
sS'48097'
p837
F41257.0
sS'31009'
p838
F465.0
sS'40119'
p839
F81784.0
sS'35059'
p840
F4059.0
sS'31005'
p841
F463.0
sS'06083'
p842
F446499.0
sS'31007'
p843
F745.0
sS'35055'
p844
F32723.0
sS'31001'
p845
F31363.0
sS'35053'
p846
F16637.0
sS'31003'
p847
F6298.0
sS'35051'
p848
F10791.0
sS'06081'
p849
F766573.0
sS'45069'
p850
F26118.0
sS'40115'
p851
F31127.0
sS'55129'
p852
F15720.0
sS'11001'
p853
F705749.0
sS'48099'
p854
F75951.0
sS'55121'
p855
F29649.0
sS'55123'
p856
F30822.0
sS'55125'
p857
F22195.0
sS'55127'
p858
F103868.0
sS'28087'
p859
F58595.0
sS'28085'
p860
F34153.0
sS'28083'
p861
F28183.0
sS'28081'
p862
F85436.0
sS'31179'
p863
F9385.0
sS'28089'
p864
F106272.0
sS'48083'
p865
F8175.0
sS'51079'
p866
F19819.0
sS'47009'
p867
F133088.0
sS'47005'
p868
F16160.0
sS'47007'
p869
F15064.0
sS'47001'
p870
F76978.0
sS'47003'
p871
F49713.0
sS'19111'
p872
F33657.0
sS'39141'
p873
F76666.0
sS'19113'
p874
F226706.0
sS'39143'
p875
F58518.0
sS'19115'
p876
F11035.0
sS'39145'
p877
F75314.0
sS'19117'
p878
F8600.0
sS'27009'
p879
F40889.0
sS'19119'
p880
F11755.0
sS'27007'
p881
F47188.0
sS'27005'
p882
F34423.0
sS'27003'
p883
F356921.0
sS'27001'
p884
F15886.0
sS'30097'
p885
F3737.0
sS'51077'
p886
F15550.0
sS'49037'
p887
F15308.0
sS'51057'
p888
F10953.0
sS'39153'
p889
F541013.0
sS'49035'
p890
F1160437.0
sS'51051'
p891
F14318.0
sS'49033'
p892
F2483.0
sS'02070'
p893
F4916.0
sS'51053'
p894
F28544.0
sS'27139'
p895
F149013.0
sS'19029'
p896
F12836.0
sS'39039'
p897
F38087.0
sS'16039'
p898
F27511.0
sS'19025'
p899
F9668.0
sS'27133'
p900
F9315.0
sS'16035'
p901
F8756.0
sS'27131'
p902
F66972.0
sS'19021'
p903
F19620.0
sS'27137'
p904
F199070.0
sS'19023'
p905
F14439.0
sS'27135'
p906
F15165.0
sS'37139'
p907
F39824.0
sS'51800'
p908
F92108.0
sS'51059'
p909
F1147532.0
sS'12051'
p910
F42022.0
sS'12053'
p911
F193920.0
sS'12055'
p912
F106221.0
sS'39159'
p913
F58988.0
sS'12057'
p914
F1471968.0
sS'12059'
p915
F19617.0
sS'42019'
p916
F187853.0
sS'46049'
p917
F2299.0
sS'46047'
p918
F6713.0
sS'42011'
p919
F421164.0
sS'46045'
p920
F3829.0
sS'42013'
p921
F121829.0
sS'46043'
p922
F2921.0
sS'42015'
p923
F60323.0
sS'46041'
p924
F5892.0
sS'42017'
p925
F628270.0
sS'51159'
p926
F9023.0
sS'48347'
p927
F65204.0
sS'51153'
p928
F470335.0
sS'51155'
p929
F34027.0
sS'51157'
p930
F7370.0
sS'48345'
p931
F1200.0
sS'48343'
p932
F12388.0
sS'21097'
p933
F18886.0
sS'21095'
p934
F26010.0
sS'21093'
p935
F110958.0
sS'21091'
p936
F8722.0
sS'48341'
p937
F20940.0
sS'55001'
p938
F20220.0
sS'21099'
p939
F19035.0
sS'26067'
p940
F64697.0
sS'05099'
p941
F8252.0
sS'26065'
p942
F292406.0
sS'26063'
p943
F30981.0
sS'26061'
p944
F35684.0
sS'02261'
p945
F9202.0
sS'26069'
p946
F25127.0
sS'17189'
p947
F13887.0
sS'17181'
p948
F16653.0
sS'17183'
p949
F75758.0
sS'17185'
p950
F11520.0
sS'17187'
p951
F16844.0
sS'01069'
p952
F105882.0
sS'17165'
p953
F23491.0
sS'17163'
p954
F259686.0
sS'17161'
p955
F141879.0
sS'01061'
p956
F26271.0
sS'01063'
p957
F8111.0
sS'01065'
p958
F14651.0
sS'01067'
p959
F17205.0
sS'49023'
p960
F12017.0
sS'48329'
p961
F176832.0
sS'54087'
p962
F13688.0
sS'48321'
p963
F36643.0
sS'48323'
p964
F58722.0
sS'48325'
p965
F51584.0
sS'48327'
p966
F2138.0
sS'48101'
p967
F1398.0
sS'48103'
p968
F4797.0
sS'48105'
p969
F3464.0
sS'48107'
p970
F5737.0
sS'48109'
p971
F2171.0
sS'48459'
p972
F41753.0
sS'13099'
p973
F10190.0
sS'13097'
p974
F146343.0
sS'13095'
p975
F87956.0
sS'13093'
p976
F13390.0
sS'13091'
p977
F20605.0
sS'48215'
p978
F868707.0
sS'36119'
p979
F967506.0
sS'13259'
p980
F6621.0
sS'48213'
p981
F82737.0
sS'13255'
p982
F66703.0
sS'13257'
p983
F25925.0
sS'13251'
p984
F13966.0
sS'13253'
p985
F8090.0
sS'37097'
p986
F181806.0
sS'48079'
p987
F2853.0
sS'48075'
p988
F7306.0
sS'48077'
p989
F10471.0
sS'48071'
p990
F43837.0
sS'48073'
p991
F52646.0
sS'24025'
p992
F255441.0
sS'53001'
p993
F19983.0
sS'24027'
p994
F325690.0
sS'24021'
p995
F259547.0
sS'20059'
p996
F25544.0
sS'24023'
p997
F29014.0
sS'20055'
p998
F36467.0
sS'20057'
p999
F33619.0
sS'24029'
p1000
F19422.0
sS'20051'
p1001
F28553.0
sS'20053'
p1002
F6102.0
sS'01087'
p1003
F18068.0
sS'01085'
p1004
F9726.0
sS'01083'
p1005
F98915.0
sS'01081'
p1006
F164542.0
sS'53005'
p1007
F204390.0
sS'40149'
p1008
F10916.0
sS'01089'
p1009
F372909.0
sS'05149'
p1010
F21341.0
sS'18181'
p1011
F24102.0
sS'18183'
p1012
F33964.0
sS'05147'
p1013
F6320.0
sS'54025'
p1014
F34662.0
sS'54023'
p1015
F11568.0
sS'54021'
p1016
F7823.0
sS'55037'
p1017
F4295.0
sS'54029'
p1018
F28810.0
sS'53003'
p1019
F22582.0
sS'30015'
p1020
F5635.0
sS'30017'
p1021
F11402.0
sS'30011'
p1022
F1252.0
sS'30013'
p1023
F81366.0
sS'31019'
p1024
F49659.0
sS'31017'
p1025
F2955.0
sS'35061'
p1026
F76688.0
sS'31015'
p1027
F1919.0
sS'30019'
p1028
F1690.0
sS'31013'
p1029
F10783.0
sS'31011'
p1030
F5192.0
sS'15007'
p1031
F72293.0
sS'15005'
p1032
F86.0
sS'48507'
p1033
F11840.0
sS'15003'
p1034
F974563.0
sS'30065'
p1035
F4633.0
sS'15001'
p1036
F201513.0
sS'15009'
p1037
F167417.0
sS'51069'
p1038
F89313.0
sS'39023'
p1039
F134083.0
sS'23011'
p1040
F122302.0
sS'28091'
p1041
F24573.0
sS'23013'
p1042
F39772.0
sS'28093'
p1043
F35294.0
sS'23015'
p1044
F34634.0
sS'28095'
p1045
F35252.0
sS'23017'
p1046
F57975.0
sS'28097'
p1047
F9775.0
sS'23019'
p1048
F152148.0
sS'28099'
p1049
F29118.0
sS'31169'
p1050
F5003.0
sS'54053'
p1051
F26516.0
sS'02020'
p1052
F288000.0
sS'47079'
p1053
F32345.0
sS'49025'
p1054
F7886.0
sS'47071'
p1055
F25652.0
sS'47073'
p1056
F56786.0
sS'47075'
p1057
F17304.0
sS'39029'
p1058
F101883.0
sS'47077'
p1059
F28117.0
sS'55061'
p1060
F20434.0
sS'19103'
p1061
F151140.0
sS'27039'
p1062
F20934.0
sS'19101'
p1063
F18295.0
sS'51036'
p1064
F6963.0
sS'19107'
p1065
F10246.0
sS'55067'
p1066
F19189.0
sS'19105'
p1067
F20681.0
sS'27033'
p1068
F11196.0
sS'51735'
p1069
F12271.0
sS'27031'
p1070
F5463.0
sS'19109'
p1071
F14813.0
sS'27037'
p1072
F429021.0
sS'27035'
p1073
F65055.0
sS'55031'
p1074
F43150.0
sS'47105'
p1075
F54068.0
sS'47107'
p1076
F53794.0
sS'47101'
p1077
F12268.0
sS'47103'
p1078
F34366.0
sS'47109'
p1079
F25694.0
sS'27107'
p1080
F6375.0
sS'27105'
p1081
F21629.0
sS'27103'
p1082
F34274.0
sS'27101'
p1083
F8194.0
sS'29067'
p1084
F13185.0
sS'27109'
p1085
F158293.0
sS'39049'
p1086
F1316756.0
sS'16029'
p1087
F7155.0
sS'19039'
p1088
F9395.0
sS'39041'
p1089
F209177.0
sS'19037'
p1090
F11933.0
sS'39043'
p1091
F74266.0
sS'19035'
p1092
F11235.0
sS'39045'
p1093
F157574.0
sS'19033'
p1094
F42450.0
sS'39047'
p1095
F28525.0
sS'19031'
p1096
F18627.0
sS'51810'
p1097
F449974.0
sS'33015'
p1098
F309769.0
sS'48373'
p1099
F51353.0
sS'12043'
p1100
F13811.0
sS'12041'
p1101
F18582.0
sS'12047'
p1102
F14428.0
sS'48395'
p1103
F17074.0
sS'12045'
p1104
F13639.0
sS'12049'
p1105
F26937.0
sS'33011'
p1106
F417025.0
sS'46059'
p1107
F3191.0
sS'46051'
p1108
F7052.0
sS'01009'
p1109
F57826.0
sS'46055'
p1110
F1899.0
sS'46057'
p1111
F6164.0
sS'37029'
p1112
F10867.0
sS'51149'
p1113
F38353.0
sS'13149'
p1114
F11923.0
sS'51143'
p1115
F60354.0
sS'29069'
p1116
F29131.0
sS'51147'
p1117
F22802.0
sS'56021'
p1118
F99500.0
sS'51145'
p1119
F29652.0
sS'33019'
p1120
F43146.0
sS'21081'
p1121
F25069.0
sS'48397'
p1122
F104915.0
sS'21083'
p1123
F37266.0
sS'21085'
p1124
F26427.0
sS'21087'
p1125
F10941.0
sS'21089'
p1126
F35098.0
sS'51830'
p1127
F14954.0
sS'26071'
p1128
F11066.0
sS'26073'
p1129
F69872.0
sS'26075'
p1130
F158510.0
sS'26077'
p1131
F265066.0
sS'26079'
p1132
F18038.0
sS'47047'
p1133
F41133.0
sS'42103'
p1134
F55809.0
sS'51063'
p1135
F15749.0
sS'17153'
p1136
F5335.0
sS'48269'
p1137
F272.0
sS'17151'
p1138
F4177.0
sS'46071'
p1139
F3344.0
sS'17157'
p1140
F31782.0
sS'17155'
p1141
F5739.0
sS'48181'
p1142
F136212.0
sS'05091'
p1143
F43257.0
sS'17159'
p1144
F15513.0
sS'05095'
p1145
F6701.0
sS'05097'
p1146
F8986.0
sS'46077'
p1147
F4939.0
sS'36047'
p1148
F2559903.0
sS'13319'
p1149
F8954.0
sS'13315'
p1150
F8635.0
sS'13317'
p1151
F9777.0
sS'13311'
p1152
F30798.0
sS'13313'
p1153
F104628.0
sS'48185'
p1154
F28880.0
sS'17081'
p1155
F37684.0
sS'42007'
p1156
F163929.0
sS'17083'
p1157
F21773.0
sS'17085'
p1158
F21235.0
sS'17087'
p1159
F12417.0
sS'17089'
p1160
F532403.0
sS'05145'
p1161
F78753.0
sS'42109'
p1162
F40372.0
sS'05143'
p1163
F239187.0
sS'05141'
p1164
F16545.0
sS'49027'
p1165
F13188.0
sS'48469'
p1166
F92084.0
sS'48467'
p1167
F56590.0
sS'48465'
p1168
F49025.0
sS'45063'
p1169
F298750.0
sS'48463'
p1170
F26741.0
sS'48461'
p1171
F3657.0
sS'20119'
p1172
F4033.0
sS'20115'
p1173
F11884.0
sS'20117'
p1174
F9707.0
sS'20111'
p1175
F33195.0
sS'20113'
p1176
F28542.0
sS'36123'
p1177
F24913.0
sS'36121'
p1178
F39859.0
sS'13229'
p1179
F19465.0
sS'48263'
p1180
F762.0
sS'48265'
p1181
F52600.0
sS'48267'
p1182
F4337.0
sS'13221'
p1183
F15259.0
sS'13223'
p1184
F168667.0
sS'13225'
p1185
F27546.0
sS'13227'
p1186
F32591.0
sS'55091'
p1187
F7287.0
sS'40049'
p1188
F27711.0
sS'55059'
p1189
F169561.0
sS'40045'
p1190
F3859.0
sS'40047'
p1191
F61056.0
sS'40041'
p1192
F43009.0
sS'40043'
p1193
F4891.0
sS'48009'
p1194
F8553.0
sS'48001'
p1195
F57735.0
sS'48003'
p1196
F18705.0
sS'48005'
p1197
F86715.0
sS'48007'
p1198
F23510.0
sS'20029'
p1199
F8786.0
sS'24037'
p1200
F113510.0
sS'24035'
p1201
F50381.0
sS'24033'
p1202
F909327.0
sS'24031'
p1203
F1050688.0
sS'20021'
p1204
F19939.0
sS'20023'
p1205
F2657.0
sS'20025'
p1206
F1994.0
sS'20027'
p1207
F8002.0
sS'24039'
p1208
F25616.0
sS'13135'
p1209
F936250.0
sS'13137'
p1210
F45328.0
sS'13131'
p1211
F24633.0
sS'13133'
p1212
F18324.0
sS'55051'
p1213
F5687.0
sS'40139'
p1214
F19983.0
sS'13139'
p1215
F204441.0
sS'55053'
p1216
F20643.0
sS'56017'
p1217
F4413.0
sS'54013'
p1218
F7109.0
sS'54011'
p1219
F91945.0
sS'54017'
p1220
F8448.0
sS'54015'
p1221
F8508.0
sS'54019'
p1222
F42406.0
sS'48485'
p1223
F132230.0
sS'48487'
p1224
F12769.0
sS'38019'
p1225
F3762.0
sS'48483'
p1226
F5056.0
sS'38015'
p1227
F95626.0
sS'38017'
p1228
F181923.0
sS'05049'
p1229
F12477.0
sS'38011'
p1230
F3024.0
sS'38013'
p1231
F2115.0
sS'05047'
p1232
F17715.0
sS'48169'
p1233
F6229.0
sS'30007'
p1234
F6237.0
sS'31029'
p1235
F3924.0
sS'30005'
p1236
F6681.0
sS'30003'
p1237
F13319.0
sS'30001'
p1238
F9453.0
sS'31023'
p1239
F8016.0
sS'56019'
p1240
F8445.0
sS'31021'
p1241
F6459.0
sS'31027'
p1242
F8402.0
sS'31025'
p1243
F26248.0
sS'30009'
p1244
F10725.0
sS'55027'
p1245
F87839.0
sS'51540'
p1246
F47266.0
sS'23003'
p1247
F67055.0
sS'23001'
p1248
F108277.0
sS'28069'
p1249
F9742.0
sS'23007'
p1250
F30199.0
sS'31159'
p1251
F17284.0
sS'23005'
p1252
F295003.0
sS'28065'
p1253
F11128.0
sS'28067'
p1254
F68098.0
sS'23009'
p1255
F54987.0
sS'28061'
p1256
F16383.0
sS'28063'
p1257
F6990.0
sS'27025'
p1258
F56579.0
sS'27027'
p1259
F64222.0
sS'27021'
p1260
F29779.0
sS'27023'
p1261
F11800.0
sS'47063'
p1262
F64934.0
sS'47061'
p1263
F13427.0
sS'27029'
p1264
F8818.0
sS'47065'
p1265
F367804.0
sS'40131'
p1266
F92459.0
sS'55071'
p1267
F78981.0
sS'55077'
p1268
F15574.0
sS'19139'
p1269
F42664.0
sS'55075'
p1270
F40350.0
sS'19137'
p1271
F9917.0
sS'19135'
p1272
F7707.0
sS'55079'
p1273
F945726.0
sS'19133'
p1274
F8615.0
sS'40133'
p1275
F24258.0
sS'19131'
p1276
F10586.0
sS'40135'
p1277
F41569.0
sS'50021'
p1278
F58191.0
sS'50027'
p1279
F55062.0
sS'50025'
p1280
F42222.0
sS'40137'
p1281
F43143.0
sS'02050'
p1282
F18386.0
sS'47117'
p1283
F34375.0
sS'47115'
p1284
F28907.0
sS'47113'
p1285
F97984.0
sS'13035'
p1286
F24936.0
sS'47119'
p1287
F96387.0
sS'27111'
p1288
F58746.0
sS'13037'
p1289
F6189.0
sS'27115'
p1290
F29579.0
sS'27117'
p1291
F9126.0
sS'27119'
p1292
F31364.0
sS'40035'
p1293
F14142.0
sS'28115'
p1294
F32174.0
sS'19009'
p1295
F5496.0
sS'39059'
p1296
F38875.0
sS'28111'
p1297
F11973.0
sS'28113'
p1298
F39288.0
sS'19003'
p1299
F3602.0
sS'39053'
p1300
F29898.0
sS'19001'
p1301
F7152.0
sS'39051'
p1302
F42126.0
sS'19007'
p1303
F12426.0
sS'39057'
p1304
F168937.0
sS'19005'
p1305
F13687.0
sS'39055'
p1306
F93649.0
sS'02130'
p1307
F13901.0
sS'12079'
p1308
F18493.0
sS'12077'
p1309
F8354.0
sS'12075'
p1310
F41503.0
sS'12073'
p1311
F293582.0
sS'12071'
p1312
F770577.0
sS'51177'
p1313
F136215.0
sS'49011'
p1314
F355481.0
sS'51175'
p1315
F17631.0
sS'51173'
p1316
F30104.0
sS'51171'
p1317
F43616.0
sS'49013'
p1318
F19938.0
sS'51179'
p1319
F152882.0
sS'51775'
p1320
F25301.0
sS'42093'
p1321
F18230.0
sS'51770'
p1322
F99143.0
sS'48449'
p1323
F32750.0
sS'49015'
p1324
F10012.0
sS'46083'
p1325
F61128.0
sS'46081'
p1326
F25844.0
sS'46087'
p1327
F5586.0
sS'49017'
p1328
F5051.0
sS'46085'
p1329
F3781.0
sS'49055'
p1330
F2711.0
sS'46089'
p1331
F2379.0
sS'49051'
p1332
F34091.0
sS'49053'
p1333
F177556.0
sS'21079'
p1334
F17666.0
sS'21075'
p1335
F5969.0
sS'21077'
p1336
F8869.0
sS'21071'
p1337
F35589.0
sS'21073'
p1338
F50991.0
sS'26089'
p1339
F21761.0
sS'26085'
p1340
F11853.0
sS'26087'
p1341
F87607.0
sS'26081'
p1342
F656955.0
sS'26083'
p1343
F2116.0
sS'21219'
p1344
F12294.0
sS'05089'
p1345
F16694.0
sS'17149'
p1346
F15561.0
sS'21211'
p1347
F49024.0
sS'05083'
p1348
F21466.0
sS'21213'
p1349
F18572.0
sS'05081'
p1350
F12259.0
sS'21215'
p1351
F19351.0
sS'05087'
p1352
F16576.0
sS'21217'
p1353
F25769.0
sS'05085'
p1354
F73309.0
sS'21189'
p1355
F4415.0
sS'13309'
p1356
F7855.0
sS'21181'
p1357
F7269.0
sS'13307'
p1358
F2607.0
sS'21183'
p1359
F23994.0
sS'13305'
p1360
F29927.0
sS'21185'
p1361
F66799.0
sS'13303'
p1362
F20374.0
sS'21187'
p1363
F10901.0
sS'13301'
p1364
F5254.0
sS'12095'
p1365
F1393452.0
sS'17093'
p1366
F128990.0
sS'12097'
p1367
F375751.0
sS'17091'
p1368
F109862.0
sS'12091'
p1369
F210738.0
sS'17097'
p1370
F696535.0
sS'12093'
p1371
F42168.0
sS'17095'
p1372
F49699.0
sS'17099'
p1373
F108669.0
sS'12099'
p1374
F1496770.0
sS'48201'
p1375
F4713325.0
sS'48479'
p1376
F276652.0
sS'48471'
p1377
F72971.0
sS'48473'
p1378
F55246.0
sS'48475'
p1379
F11998.0
sS'48477'
p1380
F35882.0
sS'55025'
p1381
F546695.0
sS'20109'
p1382
F2794.0
sS'20107'
p1383
F9703.0
sS'20105'
p1384
F2962.0
sS'20103'
p1385
F81758.0
sS'20101'
p1386
F1535.0
sS'51075'
p1387
F23753.0
sS'55021'
p1388
F57532.0
sS'51073'
p1389
F37348.0
sS'48273'
p1390
F30680.0
sS'13239'
p1391
F2299.0
sS'48277'
p1392
F49859.0
sS'48275'
p1393
F3664.0
sS'13233'
p1394
F42613.0
sS'13231'
p1395
F18962.0
sS'13237'
p1396
F22119.0
sS'13235'
p1397
F11137.0
sS'41055'
p1398
F1780.0
sS'41057'
p1399
F27036.0
sS'41051'
p1400
F812855.0
sS'01079'
p1401
F32924.0
sS'41053'
p1402
F86085.0
sS'40059'
p1403
F3688.0
sS'44005'
p1404
F82082.0
sS'40057'
p1405
F2653.0
sS'44007'
p1406
F638931.0
sS'08125'
p1407
F10019.0
sS'41059'
p1408
F77950.0
sS'08123'
p1409
F324492.0
sS'44003'
p1410
F164292.0
sS'08121'
p1411
F4908.0
sS'48019'
p1412
F23112.0
sS'29099'
p1413
F225081.0
sS'29097'
p1414
F121328.0
sS'48013'
p1415
F51153.0
sS'29095'
p1416
F703011.0
sS'48011'
p1417
F1887.0
sS'29093'
p1418
F10125.0
sS'48017'
p1419
F7000.0
sS'29091'
p1420
F40117.0
sS'48015'
p1421
F30032.0
sS'24003'
p1422
F579234.0
sS'24001'
p1423
F70416.0
sS'20039'
p1424
F2827.0
sS'24005'
p1425
F827370.0
sS'20033'
p1426
F1700.0
sS'24009'
p1427
F92525.0
sS'20031'
p1428
F8179.0
sS'20037'
p1429
F38818.0
sS'20035'
p1430
F34908.0
sS'37087'
p1431
F62317.0
sS'13127'
p1432
F85292.0
sS'37085'
p1433
F135976.0
sS'13125'
p1434
F2971.0
sS'37083'
p1435
F50010.0
sS'13123'
p1436
F31369.0
sS'37081'
p1437
F537174.0
sS'13121'
p1438
F1063937.0
sS'40129'
p1439
F3583.0
sS'37089'
p1440
F117417.0
sS'13129'
p1441
F57963.0
sS'54009'
p1442
F21939.0
sS'54005'
p1443
F21457.0
sS'54007'
p1444
F13957.0
sS'54001'
p1445
F16441.0
sS'54003'
p1446
F119171.0
sS'48497'
p1447
F69984.0
sS'48495'
p1448
F8010.0
sS'48493'
p1449
F51070.0
sS'38009'
p1450
F6282.0
sS'38007'
p1451
F928.0
sS'48167'
p1452
F342139.0
sS'38005'
p1453
F6832.0
sS'38003'
p1454
F10415.0
sS'38001'
p1455
F2216.0
sS'30033'
p1456
F1258.0
sS'30031'
p1457
F114434.0
sS'30037'
p1458
F821.0
sS'30035'
p1459
F13753.0
sS'30039'
p1460
F3379.0
sS'18035'
p1461
F114135.0
sS'18037'
p1462
F42736.0
sS'18031'
p1463
F26559.0
sS'18033'
p1464
F43475.0
sS'48489'
p1465
F21358.0
sS'18039'
p1466
F206341.0
sS'29075'
p1467
F6571.0
sS'31149'
p1468
F1357.0
sS'29077'
p1469
F293086.0
sS'29071'
p1470
F103967.0
sS'29073'
p1471
F14706.0
sS'28079'
p1472
F22786.0
sS'28077'
p1473
F12586.0
sS'28075'
p1474
F74125.0
sS'29079'
p1475
F9850.0
sS'28073'
p1476
F63343.0
sS'23031'
p1477
F207641.0
sS'28071'
p1478
F54019.0
sS'47057'
p1479
F23320.0
sS'47055'
p1480
F29464.0
sS'02195'
p1481
F3266.0
sS'47051'
p1482
F42208.0
sS'02198'
p1483
F6203.0
sS'47059'
p1484
F69069.0
sS'27051'
p1485
F5972.0
sS'40021'
p1486
F48657.0
sS'27053'
p1487
F1265843.0
sS'27055'
p1488
F18600.0
sS'27057'
p1489
F21491.0
sS'27059'
p1490
F40596.0
sS'50017'
p1491
F28892.0
sS'19129'
p1492
F15109.0
sS'50015'
p1493
F25362.0
sS'50013'
p1494
F7235.0
sS'50011'
p1495
F49402.0
sS'55047'
p1496
F18913.0
sS'19121'
p1497
F16338.0
sS'55045'
p1498
F36960.0
sS'19123'
p1499
F22095.0
sS'55043'
p1500
F51439.0
sS'19125'
p1501
F33253.0
sS'50019'
p1502
F27037.0
sS'19127'
p1503
F39369.0
sS'35001'
p1504
F679121.0
sS'31035'
p1505
F6203.0
sS'35003'
p1506
F3527.0
sS'31037'
p1507
F10709.0
sS'35005'
p1508
F64615.0
sS'31031'
p1509
F5689.0
sS'35007'
p1510
F11941.0
sS'31033'
p1511
F8910.0
sS'35009'
p1512
F48954.0
sS'31039'
p1513
F8846.0
sS'48441'
p1514
F138034.0
sS'46123'
p1515
F5441.0
sS'48443'
p1516
F776.0
sS'46125'
p1517
F8384.0
sS'47123'
p1518
F46545.0
sS'47121'
p1519
F12422.0
sS'47127'
p1520
F6488.0
sS'47125'
p1521
F208993.0
sS'48445'
p1522
F12337.0
sS'47129'
p1523
F21403.0
sS'46127'
p1524
F15932.0
sS'39067'
p1525
F15040.0
sS'19015'
p1526
F26234.0
sS'39065'
p1527
F31365.0
sS'19017'
p1528
F25062.0
sS'39063'
p1529
F75783.0
sS'19011'
p1530
F25645.0
sS'39061'
p1531
F817473.0
sS'19013'
p1532
F131228.0
sS'19019'
p1533
F21175.0
sS'39069'
p1534
F27006.0
sS'28107'
p1535
F34192.0
sS'28105'
p1536
F49587.0
sS'28103'
p1537
F10417.0
sS'28101'
p1538
F21018.0
sS'39001'
p1539
F27698.0
sS'28109'
p1540
F55535.0
sS'39003'
p1541
F102351.0
sS'45017'
p1542
F14553.0
sS'12069'
p1543
F367118.0
sS'01043'
p1544
F83768.0
sS'12061'
p1545
F159923.0
sS'12063'
p1546
F46414.0
sS'12065'
p1547
F14246.0
sS'12067'
p1548
F8422.0
sS'29211'
p1549
F6089.0
sS'51163'
p1550
F22573.0
sS'51165'
p1551
F81948.0
sS'51167'
p1552
F26586.0
sS'51169'
p1553
F21566.0
sS'29213'
p1554
F55928.0
sS'48451'
p1555
F119200.0
sS'51760'
p1556
F230436.0
sS'29215'
p1557
F25398.0
sS'48045'
p1558
F1546.0
sS'29217'
p1559
F20563.0
sS'49049'
p1560
F636235.0
sS'46095'
p1561
F2061.0
sS'46097'
p1562
F2216.0
sS'46091'
p1563
F4935.0
sS'46093'
p1564
F28332.0
sS'21069'
p1565
F14581.0
sS'21067'
p1566
F323152.0
sS'21065'
p1567
F14106.0
sS'21063'
p1568
F7517.0
sS'21061'
p1569
F12150.0
sS'48297'
p1570
F12207.0
sS'26099'
p1571
F873972.0
sS'26097'
p1572
F10799.0
sS'26095'
p1573
F6229.0
sS'26093'
p1574
F191995.0
sS'26091'
p1575
F98451.0
sS'56043'
p1576
F7805.0
sS'30099'
p1577
F6147.0
sS'46015'
p1578
F5297.0
sS'56041'
p1579
F20226.0
sS'17139'
p1580
F14501.0
sS'31157'
p1581
F35618.0
sS'21209'
p1582
F57004.0
sS'17131'
p1583
F15437.0
sS'21203'
p1584
F16695.0
sS'17133'
p1585
F34637.0
sS'21201'
p1586
F2108.0
sS'17135'
p1587
F28414.0
sS'21207'
p1588
F17923.0
sS'17137'
p1589
F33658.0
sS'21205'
p1590
F24460.0
sS'21199'
p1591
F64979.0
sS'21193'
p1592
F25758.0
sS'21191'
p1593
F14590.0
sS'21197'
p1594
F12359.0
sS'21195'
p1595
F57876.0
sS'12086'
p1596
F2716940.0
sS'12087'
p1597
F74228.0
sS'12085'
p1598
F161000.0
sS'12083'
p1599
F365579.0
sS'12081'
p1600
F403253.0
sS'12089'
p1601
F88625.0
sS'17045'
p1602
F17161.0
sS'17047'
p1603
F6395.0
sS'36103'
p1604
F1476601.0
sS'17041'
p1605
F19465.0
sS'17043'
p1606
F922921.0
sS'20133'
p1607
F16007.0
sS'20131'
p1608
F10231.0
sS'17049'
p1609
F34008.0
sS'20135'
p1610
F2750.0
sS'13207'
p1611
F27578.0
sS'36109'
p1612
F102180.0
sS'13205'
p1613
F21863.0
sS'13201'
p1614
F5718.0
sS'13209'
p1615
F9172.0
sS'36065'
p1616
F228671.0
sS'48249'
p1617
F40482.0
sS'48247'
p1618
F5200.0
sS'48245'
p1619
F251565.0
sS'48243'
p1620
F2274.0
sS'48241'
p1621
F35529.0
sS'45015'
p1622
F227907.0
sS'41047'
p1623
F347818.0
sS'08119'
p1624
F25388.0
sS'41045'
p1625
F30571.0
sS'45011'
p1626
F20866.0
sS'41043'
p1627
F129749.0
sS'45013'
p1628
F192122.0
sS'41041'
p1629
F49962.0
sS'08113'
p1630
F8179.0
sS'08111'
p1631
F728.0
sS'08117'
p1632
F31011.0
sS'08115'
p1633
F2248.0
sS'41049'
p1634
F11603.0
sS'20007'
p1635
F4427.0
sS'29089'
p1636
F10001.0
sS'20005'
p1637
F16073.0
sS'46017'
p1638
F1962.0
sS'20003'
p1639
F7858.0
sS'20001'
p1640
F12369.0
sS'29081'
p1641
F8352.0
sS'29083'
p1642
F21824.0
sS'29085'
p1643
F9544.0
sS'20009'
p1644
F25779.0
sS'29087'
p1645
F4403.0
sS'24019'
p1646
F31929.0
sS'24015'
p1647
F102855.0
sS'24017'
p1648
F163257.0
sS'24011'
p1649
F33406.0
sS'24013'
p1650
F168447.0
sS'13113'
p1651
F114421.0
sS'37091'
p1652
F23677.0
sS'13111'
p1653
F26188.0
sS'37093'
p1654
F55234.0
sS'13117'
p1655
F244252.0
sS'37095'
p1656
F4937.0
sS'13115'
p1657
F98498.0
sS'12007'
p1658
F28201.0
sS'40117'
p1659
F16376.0
sS'37099'
p1660
F43938.0
sS'13119'
p1661
F23349.0
sS'36069'
p1662
F109777.0
sS'40113'
p1663
F46963.0
sS'40111'
p1664
F38465.0
sS'09015'
p1665
F116782.0
sS'46019'
p1666
F10429.0
sS'54079'
p1667
F56450.0
sS'54071'
p1668
F6969.0
sS'09011'
p1669
F265206.0
sS'54073'
p1670
F7460.0
sS'54075'
p1671
F8247.0
sS'54077'
p1672
F33432.0
sS'38039'
p1673
F2231.0
sS'09013'
p1674
F150721.0
sS'38033'
p1675
F1761.0
sS'38031'
p1676
F3210.0
sS'54047'
p1677
F17624.0
sS'38037'
p1678
F2274.0
sS'38035'
p1679
F69451.0
sS'47067'
p1680
F6620.0
sS'54049'
p1681
F56072.0
sS'51790'
p1682
F24932.0
sS'34019'
p1683
F124371.0
sS'30029'
p1684
F103806.0
sS'55073'
p1685
F135692.0
sS'34011'
p1686
F149527.0
sS'30025'
p1687
F2846.0
sS'34013'
p1688
F798975.0
sS'30027'
p1689
F11050.0
sS'34015'
p1690
F291636.0
sS'30021'
p1691
F8613.0
sS'34017'
p1692
F672391.0
sS'30023'
p1693
F9140.0
sS'54105'
p1694
F5821.0
sS'18027'
p1695
F33351.0
sS'54107'
p1696
F83518.0
sS'18025'
p1697
F10577.0
sS'54101'
p1698
F8114.0
sS'18023'
p1699
F32399.0
sS'54103'
p1700
F15065.0
sS'18021'
p1701
F26225.0
sS'54109'
p1702
F20394.0
sS'18029'
p1703
F49458.0
sS'38105'
p1704
F37589.0
sS'38103'
p1705
F3834.0
sS'51009'
p1706
F31605.0
sS'38101'
p1707
F67641.0
sS'23029'
p1708
F31379.0
sS'28049'
p1709
F231840.0
sS'29065'
p1710
F15573.0
sS'29063'
p1711
F12547.0
sS'29061'
p1712
F8278.0
sS'28043'
p1713
F20758.0
sS'23021'
p1714
F16785.0
sS'28041'
p1715
F13586.0
sS'23023'
p1716
F35856.0
sS'28047'
p1717
F208080.0
sS'23025'
p1718
F50484.0
sS'28045'
p1719
F47632.0
sS'23027'
p1720
F39715.0
sS'47041'
p1721
F20490.0
sS'02180'
p1722
F10004.0
sS'47043'
p1723
F53948.0
sS'47045'
p1724
F37159.0
sS'02185'
p1725
F9832.0
sS'47049'
p1726
F18523.0
sS'02188'
p1727
F7621.0
sS'01073'
p1728
F658573.0
sS'51550'
p1729
F244835.0
sS'27043'
p1730
F13653.0
sS'27041'
p1731
F38141.0
sS'27047'
p1732
F30281.0
sS'27045'
p1733
F21067.0
sS'53049'
p1734
F22471.0
sS'27049'
p1735
F46340.0
sS'50001'
p1736
F36777.0
sS'50003'
p1737
F35470.0
sS'50005'
p1738
F29993.0
sS'50007'
p1739
F163774.0
sS'50009'
p1740
F6163.0
sS'51570'
p1741
F17370.0
sS'55055'
p1742
F84769.0
sS'55057'
p1743
F26687.0
sS'31041'
p1744
F10777.0
sS'35013'
p1745
F218195.0
sS'31043'
p1746
F20026.0
sS'35011'
p1747
F1748.0
sS'31045'
p1748
F8589.0
sS'35017'
p1749
F26998.0
sS'31047'
p1750
F23595.0
sS'35015'
p1751
F58460.0
sS'31049'
p1752
F1794.0
sS'35019'
p1753
F4300.0
sS'51680'
p1754
F82168.0
sS'51683'
p1755
F41085.0
sS'51685'
p1756
F17478.0
sS'47139'
p1757
F16832.0
sS'50023'
p1758
F58409.0
sS'47135'
p1759
F8076.0
sS'47137'
p1760
F5048.0
sS'47131'
p1761
F30069.0
sS'47133'
p1762
F22241.0
sS'19061'
p1763
F97311.0
sS'39071'
p1764
F43161.0
sS'19063'
p1765
F9208.0
sS'39073'
p1766
F28264.0
sS'19065'
p1767
F19650.0
sS'39075'
p1768
F43960.0
sS'19067'
p1769
F15642.0
sS'39077'
p1770
F58266.0
sS'19069'
p1771
F10070.0
sS'39079'
p1772
F32413.0
sS'37189'
p1773
F56177.0
sS'28133'
p1774
F25110.0
sS'28131'
p1775
F18336.0
sS'28137'
p1776
F28321.0
sS'28135'
p1777
F13809.0
sS'28139'
p1778
F22015.0
sS'55017'
p1779
F64658.0
sS'22105'
p1780
F134758.0
sS'51199'
p1781
F68280.0
sS'53021'
p1782
F95222.0
sS'40013'
p1783
F47995.0
sS'51195'
p1784
F37383.0
sS'51197'
p1785
F28684.0
sS'16049'
p1786
F16667.0
sS'51191'
p1787
F53740.0
sS'51193'
p1788
F18015.0
sS'22081'
p1789
F8442.0
sS'22083'
p1790
F20122.0
sS'40011'
p1791
F9429.0
sS'22085'
p1792
F23884.0
sS'22087'
p1793
F47244.0
sS'19095'
p1794
F16184.0
sS'22089'
p1795
F53100.0
sS'40017'
p1796
F148306.0
sS'19097'
p1797
F19439.0
sS'40015'
p1798
F28762.0
sS'26035'
p1799
F30950.0
sS'16043'
p1800
F13099.0
sS'21059'
p1801
F101511.0
sS'21053'
p1802
F10218.0
sS'21051'
p1803
F19901.0
sS'16041'
p1804
F13876.0
sS'21057'
p1805
F6614.0
sS'21055'
p1806
F8806.0
sS'02220'
p1807
F8493.0
sS'21237'
p1808
F7157.0
sS'21235'
p1809
F36264.0
sS'21233'
p1810
F12942.0
sS'21231'
p1811
F20333.0
sS'53045'
p1812
F66768.0
sS'53047'
p1813
F42243.0
sS'47111'
p1814
F24602.0
sS'53041'
p1815
F80707.0
sS'21239'
p1816
F26734.0
sS'17129'
p1817
F12196.0
sS'13321'
p1818
F20247.0
sS'17123'
p1819
F11438.0
sS'17121'
p1820
F37205.0
sS'17127'
p1821
F13772.0
sS'17125'
p1822
F13359.0
sS'48179'
p1823
F21886.0
sS'26135'
p1824
F8241.0
sS'26137'
p1825
F24668.0
sS'26131'
p1826
F5720.0
sS'26133'
p1827
F23460.0
sS'26139'
p1828
F291830.0
sS'20125'
p1829
F31829.0
sS'20127'
p1830
F5620.0
sS'20121'
p1831
F34237.0
sS'20123'
p1832
F5979.0
sS'20129'
p1833
F2587.0
sS'17057'
p1834
F34340.0
sS'17055'
p1835
F38469.0
sS'17053'
p1836
F12961.0
sS'17051'
p1837
F21336.0
sS'48383'
p1838
F3849.0
sS'48381'
p1839
F137713.0
sS'48187'
p1840
F166847.0
sS'48387'
p1841
F12023.0
sS'17059'
p1842
F4828.0
sS'13211'
p1843
F19276.0
sS'12131'
p1844
F74071.0
sS'13215'
p1845
F195769.0
sS'13217'
p1846
F111744.0
sS'13219'
p1847
F40280.0
sS'01041'
p1848
F13772.0
sS'53035'
p1849
F271473.0
sS'48259'
p1850
F47431.0
sS'48251'
p1851
F175817.0
sS'48253'
p1852
F20083.0
sS'48255'
p1853
F15601.0
sS'48257'
p1854
F136154.0
sS'45007'
p1855
F202558.0
sS'41071'
p1856
F107100.0
sS'45005'
p1857
F8688.0
sS'45003'
p1858
F170872.0
sS'45001'
p1859
F24527.0
sS'48039'
p1860
F374264.0
sS'45009'
p1861
F14066.0
sS'20011'
p1862
F14534.0
sS'20013'
p1863
F9564.0
sS'20015'
p1864
F66911.0
sS'20017'
p1865
F2648.0
sS'20019'
p1866
F3250.0
sS'01047'
p1867
F37196.0
sS'28117'
p1868
F25126.0
sS'40109'
p1869
F797434.0
sS'37069'
p1870
F69685.0
sS'13109'
p1871
F10654.0
sS'37065'
p1872
F51472.0
sS'13105'
p1873
F19194.0
sS'37067'
p1874
F382295.0
sS'13107'
p1875
F22646.0
sS'37061'
p1876
F58741.0
sS'13101'
p1877
F4006.0
sS'37063'
p1878
F321488.0
sS'13103'
p1879
F64296.0
sS'48221'
p1880
F61643.0
sS'04009'
p1881
F38837.0
sS'38025'
p1882
F4424.0
sS'29183'
p1883
F402022.0
sS'38027'
p1884
F2287.0
sS'29185'
p1885
F9397.0
sS'38021'
p1886
F4872.0
sS'29187'
p1887
F67215.0
sS'29186'
p1888
F17894.0
sS'04001'
p1889
F71887.0
sS'54063'
p1890
F13275.0
sS'04003'
p1891
F125922.0
sS'54061'
p1892
F105612.0
sS'04005'
p1893
F143476.0
sS'38029'
p1894
F3241.0
sS'04007'
p1895
F54018.0
sS'54065'
p1896
F17884.0
sS'28119'
p1897
F6792.0
sS'08105'
p1898
F11267.0
sS'08107'
p1899
F25638.0
sS'08101'
p1900
F168424.0
sS'08103'
p1901
F6324.0
sS'48059'
p1902
F13943.0
sS'08109'
p1903
F6824.0
sS'30059'
p1904
F1862.0
sS'34009'
p1905
F92039.0
sS'30051'
p1906
F2337.0
sS'34003'
p1907
F932202.0
sS'30053'
p1908
F19980.0
sS'34001'
p1909
F263670.0
sS'30055'
p1910
F1664.0
sS'34007'
p1911
F506471.0
sS'30057'
p1912
F8600.0
sS'34005'
p1913
F445349.0
sS'18013'
p1914
F15092.0
sS'16021'
p1915
F12245.0
sS'18011'
p1916
F67843.0
sS'18017'
p1917
F37689.0
sS'18015'
p1918
F20257.0
sS'18019'
p1919
F118302.0
sS'28055'
p1920
F1327.0
sS'28057'
p1921
F23390.0
sS'28051'
p1922
F17010.0
sS'28053'
p1923
F8064.0
sS'28059'
p1924
F143617.0
sS'29053'
p1925
F17709.0
sS'29051'
p1926
F76745.0
sS'29057'
p1927
F7561.0
sS'29055'
p1928
F23920.0
sS'29059'
p1929
F16878.0
sS'48385'
p1930
F3452.0
sS'37119'
p1931
F1110356.0
sS'36015'
p1932
F83456.0
sS'13213'
p1933
F40096.0
sS'27079'
p1934
F28887.0
sS'27077'
p1935
F3740.0
sS'31185'
p1936
F13679.0
sS'27075'
p1937
F10641.0
sS'27073'
p1938
F6623.0
sS'31181'
p1939
F3487.0
sS'27071'
p1940
F12229.0
sS'31183'
p1941
F783.0
sS'48481'
p1942
F41556.0
sS'31053'
p1943
F36565.0
sS'31051'
p1944
F5636.0
sS'31057'
p1945
F1693.0
sS'35029'
p1946
F23709.0
sS'31055'
p1947
F571327.0
sS'35027'
p1948
F19572.0
sS'35025'
p1949
F71070.0
sS'31059'
p1950
F5462.0
sS'35023'
p1951
F4198.0
sS'35021'
p1952
F625.0
sS'55083'
p1953
F37930.0
sS'55081'
p1954
F46253.0
sS'55087'
p1955
F187885.0
sS'55085'
p1956
F35595.0
sS'55089'
p1957
F89221.0
sS'47149'
p1958
F332285.0
sS'51690'
p1959
F12554.0
sS'36019'
p1960
F80485.0
sS'47141'
p1961
F80245.0
sS'47143'
p1962
F33167.0
sS'47145'
p1963
F53382.0
sS'47147'
p1964
F71813.0
sS'19073'
p1965
F8888.0
sS'19071'
p1966
F6960.0
sS'39089'
p1967
F176862.0
sS'19077'
p1968
F10689.0
sS'19075'
p1969
F12232.0
sS'39085'
p1970
F230149.0
sS'39087'
p1971
F59463.0
sS'19079'
p1972
F14773.0
sS'39081'
p1973
F65325.0
sS'39083'
p1974
F62322.0
sS'28129'
p1975
F15916.0
sS'35057'
p1976
F15461.0
sS'28125'
p1977
F4321.0
sS'28127'
p1978
F26658.0
sS'28121'
p1979
F155271.0
sS'28123'
p1980
F28124.0
sS'16083'
p1981
F86878.0
sS'16081'
p1982
F12142.0
sS'16087'
p1983
F10194.0
sS'16085'
p1984
F11392.0
sS'02150'
p1985
F12998.0
sS'51610'
p1986
F14617.0
sS'51187'
p1987
F40164.0
sS'51185'
p1988
F40595.0
sS'02158'
p1989
F8314.0
sS'51181'
p1990
F6422.0
sS'27095'
p1991
F26277.0
sS'22093'
p1992
F21096.0
sS'27097'
p1993
F33386.0
sS'22091'
p1994
F10132.0
sS'27091'
p1995
F19683.0
sS'22097'
p1996
F82124.0
sS'27093'
p1997
F23222.0
sS'22095'
p1998
F42837.0
sS'22099'
p1999
F53431.0
sS'27099'
p2000
F40062.0
sS'21045'
p2001
F16159.0
sS'21047'
p2002
F70461.0
sS'21041'
p2003
F10631.0
sS'21043'
p2004
F26797.0
sS'17203'
p2005
F38459.0
sS'17201'
p2006
F282572.0
sS'21049'
p2007
F36263.0
sS'53023'
p2008
F2225.0
sS'48033'
p2009
F654.0
sS'02230'
p2010
F1183.0
sS'48035'
p2011
F18685.0
sS'48037'
p2012
F93245.0
sS'39033'
p2013
F41494.0
sS'51678'
p2014
F7446.0
sS'17117'
p2015
F44926.0
sS'21221'
p2016
F14651.0
sS'17115'
p2017
F104009.0
sS'21223'
p2018
F8471.0
sS'05059'
p2019
F33771.0
sS'21225'
p2020
F14381.0
sS'17111'
p2021
F307774.0
sS'21227'
p2022
F132896.0
sS'05055'
p2023
F45325.0
sS'21229'
p2024
F12095.0
sS'05057'
p2025
F21532.0
sS'53055'
p2026
F17582.0
sS'05051'
p2027
F99386.0
sS'53053'
p2028
F904980.0
sS'05053'
p2029
F18265.0
sS'53051'
p2030
F13724.0
sS'36099'
p2031
F34016.0
sS'36097'
p2032
F17807.0
sS'36095'
p2033
F30999.0
sS'36093'
p2034
F155299.0
sS'36091'
p2035
F229863.0
sS'51670'
p2036
F22529.0
sS'42087'
p2037
F46138.0
sS'26127'
p2038
F26467.0
sS'42085'
p2039
F109424.0
sS'26125'
p2040
F1257584.0
sS'42083'
p2041
F40625.0
sS'26123'
p2042
F48980.0
sS'42081'
p2043
F113299.0
sS'26121'
p2044
F173566.0
sS'42089'
p2045
F170271.0
sS'26129'
p2046
F20997.0
sS'20151'
p2047
F9164.0
sS'10005'
p2048
F234225.0
sS'16047'
p2049
F15179.0
sS'20155'
p2050
F61998.0
sS'10001'
p2051
F180786.0
sS'20157'
p2052
F4636.0
sS'10003'
p2053
F558753.0
sS'20159'
p2054
F9537.0
sS'17063'
p2055
F51054.0
sS'48423'
p2056
F232751.0
sS'17061'
p2057
F12969.0
sS'17067'
p2058
F17708.0
sS'17065'
p2059
F8116.0
sS'17069'
p2060
F3821.0
sS'48421'
p2061
F3022.0
sS'56029'
p2062
F29194.0
sS'30077'
p2063
F6890.0
sS'34021'
p2064
F367430.0
sS'48427'
p2065
F64633.0
sS'30075'
p2066
F1682.0
sS'48425'
p2067
F9128.0
sS'30073'
p2068
F5911.0
sS'49057'
p2069
F260213.0
sS'34025'
p2070
F618795.0
sS'45033'
p2071
F30479.0
sS'45031'
p2072
F66618.0
sS'45037'
p2073
F27260.0
sS'30071'
p2074
F3954.0
sS'45035'
p2075
F162809.0
sS'41065'
p2076
F26682.0
sS'45039'
p2077
F22347.0
sS'41067'
p2078
F601592.0
sS'41061'
p2079
F26835.0
sS'41063'
p2080
F7208.0
sS'48283'
p2081
F7520.0
sS'48281'
p2082
F21428.0
sS'48287'
p2083
F17239.0
sS'48285'
p2084
F20154.0
sS'34029'
p2085
F607186.0
sS'48289'
p2086
F17404.0
sS'13179'
p2087
F61435.0
sS'36077'
p2088
F59493.0
sS'36071'
p2089
F384940.0
sS'36073'
p2090
F40352.0
sS'37079'
p2091
F21069.0
sS'13171'
p2092
F19077.0
sS'37077'
p2093
F60443.0
sS'13173'
p2094
F10423.0
sS'37075'
p2095
F8441.0
sS'13175'
p2096
F47546.0
sS'37073'
p2097
F11562.0
sS'13177'
p2098
F29992.0
sS'37071'
p2099
F224529.0
sS'54057'
p2100
F26868.0
sS'54055'
p2101
F58758.0
sS'08009'
p2102
F3581.0
sS'54051'
p2103
F30531.0
sS'08005'
p2104
F656590.0
sS'08007'
p2105
F14029.0
sS'32021'
p2106
F4505.0
sS'08001'
p2107
F517421.0
sS'08003'
p2108
F16233.0
sS'38051'
p2109
F2497.0
sS'38053'
p2110
F15024.0
sS'04019'
p2111
F1047279.0
sS'38055'
p2112
F9450.0
sS'29197'
p2113
F4660.0
sS'38057'
p2114
F8187.0
sS'29195'
p2115
F22761.0
sS'04012'
p2116
F21108.0
sS'04013'
p2117
F4485414.0
sS'04011'
p2118
F9498.0
sS'04017'
p2119
F110924.0
sS'04015'
p2120
F212181.0
sS'42117'
p2121
F40591.0
sS'13005'
p2122
F11164.0
sS'13007'
p2123
F3038.0
sS'13001'
p2124
F18386.0
sS'13003'
p2125
F8165.0
sS'19183'
p2126
F21965.0
sS'40009'
p2127
F21859.0
sS'13009'
p2128
F44890.0
sS'19181'
p2129
F51466.0
sS'30043'
p2130
F12221.0
sS'30041'
p2131
F16484.0
sS'30047'
p2132
F30458.0
sS'19187'
p2133
F35904.0
sS'18009'
p2134
F11758.0
sS'40101'
p2135
F67997.0
sS'18005'
p2136
F83779.0
sS'19185'
p2137
F6441.0
sS'18001'
p2138
F35777.0
sS'18003'
p2139
F379299.0
sS'20205'
p2140
F8525.0
sS'20207'
p2141
F3138.0
sS'40103'
p2142
F11131.0
sS'20201'
p2143
F5406.0
sS'20203'
p2144
F2119.0
sS'28029'
p2145
F28065.0
sS'45091'
p2146
F280979.0
sS'37133'
p2147
F197938.0
sS'20209'
p2148
F165429.0
sS'40105'
p2149
F10076.0
sS'37107'
p2150
F55949.0
sS'37105'
p2151
F61779.0
sS'29049'
p2152
F20387.0
sS'37101'
p2153
F209339.0
sS'29045'
p2154
F6797.0
sS'29047'
p2155
F249948.0
sS'29041'
p2156
F7426.0
sS'29510'
p2157
F300576.0
sS'29043'
p2158
F88595.0
sS'27069'
p2159
F4298.0
sS'27061'
p2160
F45130.0
sS'27063'
p2161
F9846.0
sS'27065'
p2162
F16337.0
sS'27067'
p2163
F43199.0
sS'34037'
p2164
F140488.0
sS'35039'
p2165
F38921.0
sS'34035'
p2166
F328934.0
sS'34033'
p2167
F62385.0
sS'31069'
p2168
F1837.0
sS'31067'
p2169
F21513.0
sS'35031'
p2170
F71367.0
sS'31065'
p2171
F4676.0
sS'35033'
p2172
F4521.0
sS'31063'
p2173
F2627.0
sS'35035'
p2174
F67490.0
sS'31061'
p2175
F2979.0
sS'35037'
p2176
F8253.0
sS'51021'
p2177
F6280.0
sS'02090'
p2178
F96849.0
sS'55099'
p2179
F13351.0
sS'06089'
p2180
F180080.0
sS'55015'
p2181
F50089.0
sS'19191'
p2182
F19991.0
sS'55095'
p2183
F43783.0
sS'19193'
p2184
F103107.0
sS'55097'
p2185
F70772.0
sS'19195'
p2186
F7381.0
sS'51023'
p2187
F33419.0
sS'19197'
p2188
F12562.0
sS'55093'
p2189
F42754.0
sS'31085'
p2190
F922.0
sS'31087'
p2191
F2762.0
sS'47159'
p2192
F20157.0
sS'31081'
p2193
F9324.0
sS'31083'
p2194
F3380.0
sS'46037'
p2195
F5424.0
sS'47153'
p2196
F15026.0
sS'47151'
p2197
F22068.0
sS'31089'
p2198
F10067.0
sS'47157'
p2199
F937166.0
sS'47155'
p2200
F98250.0
sS'29181'
p2201
F13288.0
sS'46035'
p2202
F19775.0
sS'51027'
p2203
F21004.0
sS'19049'
p2204
F93453.0
sS'39099'
p2205
F228683.0
sS'19047'
p2206
F16820.0
sS'39097'
p2207
F44731.0
sS'19045'
p2208
F46429.0
sS'39095'
p2209
F428348.0
sS'19043'
p2210
F17549.0
sS'39093'
p2211
F309833.0
sS'19041'
p2212
F16016.0
sS'39091'
p2213
F45672.0
sS'28159'
p2214
F17955.0
sS'51029'
p2215
F17148.0
sS'54069'
p2216
F41411.0
sS'39149'
p2217
F48590.0
sS'28151'
p2218
F43909.0
sS'28153'
p2219
F20183.0
sS'46031'
p2220
F4086.0
sS'28155'
p2221
F9689.0
sS'28157'
p2222
F8630.0
sS'38023'
p2223
F2264.0
sS'48379'
p2224
F12514.0
sS'55019'
p2225
F34774.0
sS'29189'
p2226
F994205.0
sS'05129'
p2227
F7881.0
sS'39147'
p2228
F55178.0
sS'36059'
p2229
F1356924.0
sS'48049'
p2230
F37864.0
sS'54067'
p2231
F24496.0
sS'27087'
p2232
F5527.0
sS'27085'
p2233
F35893.0
sS'27083'
p2234
F25474.0
sS'27081'
p2235
F5639.0
sS'51730'
p2236
F31346.0
sS'40061'
p2237
F12627.0
sS'48371'
p2238
F15823.0
sS'27089'
p2239
F9336.0
sS'21031'
p2240
F12879.0
sS'21033'
p2241
F12747.0
sS'21035'
p2242
F39001.0
sS'21037'
p2243
F93584.0
sS'21039'
p2244
F4760.0
sS'48377'
p2245
F6704.0
sS'22045'
p2246
F69830.0
sS'39111'
p2247
F13654.0
sS'22047'
p2248
F32511.0
sS'22041'
p2249
F20015.0
sS'05123'
p2250
F24994.0
sS'22043'
p2251
F22389.0
sS'25027'
p2252
F830622.0
sS'25025'
p2253
F803907.0
sS'22049'
p2254
F15744.0
sS'25023'
p2255
F521202.0
sS'25021'
p2256
F706775.0
sS'06065'
p2257
F2470546.0
sS'06067'
p2258
F1552058.0
sS'06061'
p2259
F398329.0
sS'06063'
p2260
F18807.0
sS'06069'
p2261
F62808.0
sS'51640'
p2262
F6347.0
sS'37169'
p2263
F45591.0
sS'56015'
p2264
F13211.0
sS'17101'
p2265
F15678.0
sS'53069'
p2266
F4488.0
sS'17103'
p2267
F34096.0
sS'56011'
p2268
F7584.0
sS'17105'
p2269
F35648.0
sS'56013'
p2270
F39261.0
sS'17107'
p2271
F28618.0
sS'53063'
p2272
F522798.0
sS'17109'
p2273
F29682.0
sS'53061'
p2274
F822083.0
sS'05045'
p2275
F126007.0
sS'53067'
p2276
F290536.0
sS'05043'
p2277
F18219.0
sS'53065'
p2278
F45723.0
sS'05041'
p2279
F11361.0
sS'36089'
p2280
F107740.0
sS'21149'
p2281
F9207.0
sS'17145'
p2282
F20916.0
sS'21145'
p2283
F65418.0
sS'36081'
p2284
F2253858.0
sS'21147'
p2285
F17231.0
sS'36083'
p2286
F158714.0
sS'21141'
p2287
F27102.0
sS'36085'
p2288
F476143.0
sS'21143'
p2289
F8210.0
sS'36087'
p2290
F325789.0
sS'17147'
p2291
F16344.0
sS'40075'
p2292
F8708.0
sS'48291'
p2293
F88219.0
sS'17141'
p2294
F50643.0
sS'26113'
p2295
F15118.0
sS'42091'
p2296
F830915.0
sS'26111'
p2297
F83156.0
sS'40077'
p2298
F10073.0
sS'26117'
p2299
F63888.0
sS'42095'
p2300
F305285.0
sS'26115'
p2301
F150500.0
sS'42097'
p2302
F90843.0
sS'49019'
p2303
F9754.0
sS'42099'
p2304
F46272.0
sS'26119'
p2305
F9328.0
sS'17143'
p2306
F179179.0
sS'40071'
p2307
F43538.0
sS'20143'
p2308
F5704.0
sS'20141'
p2309
F3421.0
sS'20147'
p2310
F5234.0
sS'20145'
p2311
F6414.0
sS'46135'
p2312
F22814.0
sS'20149'
p2313
F24383.0
sS'17079'
p2314
F9610.0
sS'17075'
p2315
F27114.0
sS'17077'
p2316
F56750.0
sS'17071'
p2317
F6646.0
sS'17073'
p2318
F48913.0
sS'51019'
p2319
F78997.0
sS'40079'
p2320
F49853.0
sS'48413'
p2321
F2793.0
sS'41019'
p2322
F110980.0
sS'45029'
p2323
F37677.0
sS'41011'
p2324
F64487.0
sS'45025'
p2325
F45650.0
sS'41013'
p2326
F24404.0
sS'45027'
p2327
F33745.0
sS'41015'
p2328
F22925.0
sS'45021'
p2329
F57300.0
sS'41017'
p2330
F197692.0
sS'45023'
p2331
F32244.0
sS'24047'
p2332
F52276.0
sS'24045'
p2333
F103609.0
sS'24043'
p2334
F151049.0
sS'48299'
p2335
F21795.0
sS'24041'
p2336
F37181.0
sS'29219'
p2337
F35649.0
sS'48295'
p2338
F3233.0
sS'40031'
p2339
F120749.0
sS'53025'
p2340
F97733.0
sS'42133'
p2341
F449058.0
sS'48293'
p2342
F23437.0
sS'51045'
p2343
F5131.0
sS'53013'
p2344
F3985.0
sS'36067'
p2345
F460528.0
sS'37049'
p2346
F102139.0
sS'13169'
p2347
F28735.0
sS'36063'
p2348
F209281.0
sS'36061'
p2349
F1628706.0
sS'37043'
p2350
F11231.0
sS'13163'
p2351
F15362.0
sS'37041'
p2352
F13943.0
sS'13161'
p2353
F15115.0
sS'37047'
p2354
F55508.0
sS'13167'
p2355
F9643.0
sS'37045'
p2356
F97947.0
sS'13165'
p2357
F8676.0
sS'04027'
p2358
F213787.0
sS'54041'
p2359
F15907.0
sS'04025'
p2360
F235099.0
sS'54043'
p2361
F20409.0
sS'04023'
p2362
F46498.0
sS'54045'
p2363
F32019.0
sS'04021'
p2364
F462789.0
sS'08019'
p2365
F9700.0
sS'08017'
p2366
F1831.0
sS'08014'
p2367
F70465.0
sS'08015'
p2368
F20356.0
sS'08013'
p2369
F326196.0
sS'08011'
p2370
F5577.0
sS'38043'
p2371
F2480.0
sS'38041'
p2372
F2499.0
sS'38047'
p2373
F1850.0
sS'38045'
p2374
F4046.0
sS'38049'
p2375
F5745.0
sS'13017'
p2376
F16700.0
sS'13015'
p2377
F107738.0
sS'13013'
p2378
F83240.0
sS'30109'
p2379
F969.0
sS'13011'
p2380
F19234.0
sS'30107'
p2381
F2126.0
sS'30105'
p2382
F7396.0
sS'40019'
p2383
F48111.0
sS'30103'
p2384
F696.0
sS'30101'
p2385
F4736.0
sS'13019'
p2386
F19397.0
sS'18079'
p2387
F27735.0
sS'18071'
p2388
F44231.0
sS'18073'
p2389
F33562.0
sS'18075'
p2390
F20436.0
sS'46107'
p2391
F2153.0
sS'18077'
p2392
F32308.0
sS'28033'
p2393
F184945.0
sS'28031'
p2394
F18636.0
sS'28037'
p2395
F7713.0
sS'28035'
p2396
F74897.0
sS'48189'
p2397
F33406.0
sS'28039'
p2398
F24500.0
sS'29039'
p2399
F14349.0
sS'37131'
p2400
F19483.0
sS'37137'
p2401
F12726.0
sS'37135'
p2402
F148476.0
sS'29031'
p2403
F78871.0
sS'29033'
p2404
F8679.0
sS'29035'
p2405
F5982.0
sS'29037'
p2406
F105780.0
sS'47099'
p2407
F44142.0
sS'47093'
p2408
F470313.0
sS'47091'
p2409
F17788.0
sS'47097'
p2410
F25633.0
sS'47095'
p2411
F7016.0
sS'40037'
p2412
F71522.0
sS'18105'
p2413
F148431.0
sS'16037'
p2414
F4315.0
sS'18107'
p2415
F38338.0
sS'18101'
p2416
F10255.0
sS'18103'
p2417
F35516.0
sS'39035'
p2418
F1235072.0
sS'18109'
p2419
F70489.0
sS'19027'
p2420
F20165.0
sS'51071'
p2421
F16720.0
sS'39037'
p2422
F51113.0
sS'16033'
p2423
F845.0
sS'39031'
p2424
F36600.0
sS'29145'
p2425
F58236.0
sS'31079'
p2426
F61353.0
sS'29147'
p2427
F22092.0
sS'34023'
p2428
F825062.0
sS'29141'
p2429
F20627.0
sS'16031'
p2430
F24030.0
sS'29143'
p2431
F17076.0
sS'34027'
p2432
F491845.0
sS'31071'
p2433
F1969.0
sS'31073'
p2434
F1990.0
sS'29149'
p2435
F10529.0
sS'31075'
p2436
F623.0
sS'30079'
p2437
F1077.0
sS'31077'
p2438
F2356.0
sS'47167'
p2439
F61599.0
sS'06099'
p2440
F550660.0
sS'47165'
p2441
F191283.0
sS'19189'
p2442
F10354.0
sS'47163'
p2443
F158348.0
sS'47161'
p2444
F13715.0
sS'06091'
p2445
F3005.0
sS'06093'
p2446
F43539.0
sS'06095'
p2447
F447643.0
sS'47169'
p2448
F11284.0
sS'06097'
p2449
F494336.0
sS'31097'
p2450
F5071.0
sS'31095'
p2451
F7046.0
sS'31093'
p2452
F6445.0
sS'31091'
p2453
F682.0
sS'31099'
p2454
F6495.0
sS'19059'
p2455
F17258.0
sS'55039'
p2456
F103403.0
sS'49021'
p2457
F54839.0
sS'19051'
p2458
F9000.0
sS'19053'
p2459
F7870.0
sS'19055'
p2460
F17011.0
sS'19057'
p2461
F38967.0
sS'31141'
p2462
F33470.0
sS'28149'
p2463
F45381.0
sS'51740'
p2464
F94398.0
sS'28143'
p2465
F9632.0
sS'28141'
p2466
F19383.0
sS'28147'
p2467
F14286.0
sS'28145'
p2468
F28815.0
sS'37113'
p2469
F35858.0
sS'37031'
p2470
F69473.0
sS'22123'
p2471
F10830.0
sS'22121'
p2472
F26465.0
sS'22127'
p2473
F13904.0
sS'22125'
p2474
F15568.0
sS'02170'
p2475
F108317.0
sS'31143'
p2476
F5213.0
sS'39135'
p2477
F40882.0
sS'39137'
p2478
F33861.0
sS'39131'
p2479
F27772.0
sS'39133'
p2480
F162466.0
sS'51720'
p2481
F3981.0
sS'39139'
p2482
F121154.0
sS'21023'
p2483
F8303.0
sS'21021'
p2484
F30060.0
sS'21027'
p2485
F20477.0
sS'21025'
p2486
F12630.0
sS'21029'
p2487
F81676.0
sS'22057'
p2488
F97614.0
sS'25019'
p2489
F11399.0
sS'22055'
p2490
F244390.0
sS'22053'
p2491
F31368.0
sS'22051'
p2492
F432493.0
sS'25013'
p2493
F466372.0
sS'25011'
p2494
F70180.0
sS'25017'
p2495
F1611699.0
sS'25015'
p2496
F160830.0
sS'22059'
p2497
F14892.0
sS'06077'
p2498
F762148.0
sS'06075'
p2499
F881549.0
sS'06073'
p2500
F3338330.0
sS'06071'
p2501
F2180085.0
sS'31145'
p2502
F10724.0
sS'06079'
p2503
F283111.0
sS'48271'
p2504
F3667.0
sS'51650'
p2505
F134510.0
sS'56007'
p2506
F14800.0
sS'05079'
p2507
F13024.0
sS'56005'
p2508
F46341.0
sS'56003'
p2509
F11790.0
sS'56001'
p2510
F38880.0
sS'05073'
p2511
F6624.0
sS'05071'
p2512
F26578.0
sS'05077'
p2513
F8857.0
sS'53031'
p2514
F32221.0
sS'05075'
p2515
F16406.0
sS'56009'
p2516
F13822.0
sS'48183'
p2517
F123945.0
sS'21159'
p2518
F11195.0
sS'21157'
p2519
F31100.0
sS'21155'
p2520
F19273.0
sS'21153'
p2521
F12161.0
sS'21151'
p2522
F92987.0
sS'48279'
p2523
F12893.0
sS'31147'
p2524
F7865.0
sS'46121'
p2525
F10177.0
sS'49003'
p2526
F56046.0
sS'49001'
p2527
F6710.0
sS'42069'
p2528
F209674.0
sS'26109'
p2529
F22780.0
sS'49005'
p2530
F128289.0
sS'42065'
p2531
F43425.0
sS'26105'
p2532
F29144.0
sS'42067'
p2533
F24763.0
sS'26107'
p2534
F43453.0
sS'42061'
p2535
F45144.0
sS'26101'
p2536
F24558.0
sS'42063'
p2537
F84073.0
sS'26103'
p2538
F66699.0
sS'48359'
p2539
F2112.0
sS'40107'
p2540
F11993.0
sS'20179'
p2541
F2521.0
sS'20177'
p2542
F176875.0
sS'53033'
p2543
F2252782.0
sS'20175'
p2544
F21428.0
sS'20173'
p2545
F516042.0
sS'20171'
p2546
F4823.0
sS'17009'
p2547
F6578.0
sS'17001'
p2548
F65435.0
sS'44009'
p2549
F125577.0
sS'17003'
p2550
F5761.0
sS'17005'
p2551
F16426.0
sS'17007'
p2552
F53544.0
sS'53075'
p2553
F50104.0
sS'53077'
p2554
F250873.0
sS'53071'
p2555
F60760.0
sS'53073'
p2556
F229247.0
sS'40051'
p2557
F55834.0
sS'40055'
p2558
F5712.0
sS'45051'
p2559
F354081.0
sS'41003'
p2560
F93053.0
sS'45053'
p2561
F30073.0
sS'40033'
p2562
F5666.0
sS'45055'
p2563
F66551.0
sS'41007'
p2564
F40224.0
sS'45057'
p2565
F98012.0
sS'40053'
p2566
F4333.0
sS'29203'
p2567
F8166.0
sS'29201'
p2568
F38280.0
sS'29207'
p2569
F29025.0
sS'29205'
p2570
F5930.0
sS'29209'
p2571
F31952.0
sS'13157'
p2572
F72977.0
sS'37055'
p2573
F37009.0
sS'13155'
p2574
F9416.0
sS'37057'
p2575
F167609.0
sS'01019'
p2576
F26196.0
sS'37051'
p2577
F335509.0
sS'13151'
p2578
F234561.0
sS'37053'
p2579
F27763.0
sS'01015'
p2580
F113605.0
sS'01017'
p2581
F33254.0
sS'01011'
p2582
F10101.0
sS'37059'
p2583
F42846.0
sS'01013'
p2584
F19448.0
sS'36053'
p2585
F70941.0
sS'33009'
p2586
F89886.0
sS'36057'
p2587
F49221.0
sS'36055'
p2588
F741770.0
sS'33003'
p2589
F48910.0
sS'48409'
p2590
F66730.0
sS'33001'
p2591
F61303.0
sS'33007'
p2592
F31563.0
sS'33005'
p2593
F76085.0
sS'09007'
p2594
F162436.0
sS'08029'
p2595
F31162.0
sS'09005'
p2596
F180333.0
sS'09003'
p2597
F891720.0
sS'09001'
p2598
F943332.0
sS'08023'
p2599
F3887.0
sS'08021'
p2600
F8205.0
sS'08027'
p2601
F5068.0
sS'08025'
p2602
F6061.0
sS'09009'
p2603
F854757.0
sS'48175'
p2604
F7658.0
sS'48177'
p2605
F20837.0
sS'48171'
p2606
F26988.0
sS'38079'
p2607
F14176.0
sS'38077'
p2608
F16177.0
sS'38075'
p2609
F2327.0
sS'38073'
p2610
F5218.0
sS'48407'
p2611
F28859.0
sS'38071'
p2612
F11519.0
sS'20195'
p2613
F2803.0
sS'20197'
p2614
F6931.0
sS'20191'
p2615
F22836.0
sS'20193'
p2616
F7777.0
sS'40025'
p2617
F2137.0
sS'20199'
p2618
F1518.0
sS'13023'
p2619
F12873.0
sS'13021'
p2620
F153159.0
sS'13027'
p2621
F15457.0
sS'13025'
p2622
F19109.0
sS'01121'
p2623
F79978.0
sS'30111'
p2624
F161300.0
sS'01123'
p2625
F40367.0
sS'39005'
p2626
F53484.0
sS'01125'
p2627
F209355.0
sS'55013'
p2628
F15414.0
sS'01127'
p2629
F63521.0
sS'35028'
p2630
F19369.0
sS'18069'
p2631
F36520.0
sS'18063'
p2632
F170311.0
sS'18061'
p2633
F40515.0
sS'18067'
p2634
F82544.0
sS'18065'
p2635
F47972.0
sS'28009'
p2636
F8259.0
sS'28007'
p2637
F18174.0
sS'28005'
p2638
F12297.0
sS'28003'
p2639
F36953.0
sS'28001'
p2640
F30693.0
sS'29029'
p2641
F46305.0
sS'37129'
p2642
F234473.0
sS'39007'
p2643
F97241.0
sS'29023'
p2644
F42478.0
sS'29021'
p2645
F87364.0
sS'29027'
p2646
F44743.0
sS'29025'
p2647
F9020.0
sS'18117'
p2648
F19646.0
sS'18115'
p2649
F5875.0
sS'18113'
p2650
F47744.0
sS'18111'
p2651
F13984.0
sS'18119'
p2652
F20799.0
sS'45077'
p2653
F126884.0
sS'51007'
p2654
F13145.0
sS'40123'
p2655
F38284.0
sS'24510'
p2656
F593490.0
sS'38095'
p2657
F2189.0
sS'29157'
p2658
F19136.0
sS'38097'
p2659
F8036.0
sS'29155'
p2660
F15805.0
sS'38091'
p2661
F1890.0
sS'29153'
p2662
F9174.0
sS'38093'
p2663
F20704.0
sS'29151'
p2664
F13615.0
sS'30069'
p2665
F487.0
sS'38099'
p2666
F10641.0
sS'53057'
p2667
F129205.0
sS'29159'
p2668
F42339.0
sS'47171'
p2669
F17883.0
sS'47173'
p2670
F19972.0
sS'39129'
p2671
F58457.0
sS'37115'
p2672
F21755.0
sS'47179'
p2673
F129375.0
sS'40125'
p2674
F72592.0
sS'51005'
p2675
F14860.0
sS'47027'
p2676
F7615.0
sS'47085'
p2677
F18582.0
sS'47087'
p2678
F11786.0
sS'45079'
p2679
F415759.0
sS'47083'
p2680
F8201.0
sS'47089'
p2681
F54495.0
sS'55141'
p2682
F72999.0
sS'19083'
p2683
F16846.0
sS'19081'
p2684
F10630.0
sS'37117'
p2685
F22440.0
sS'22113'
p2686
F59511.0
sS'42037'
p2687
F64964.0
sS'19085'
p2688
F14049.0
sS'16055'
p2689
F165697.0
sS'19089'
p2690
F9158.0
sS'16051'
p2691
F29871.0
sS'16053'
p2692
F24412.0
sS'51003'
p2693
F109330.0
sS'48375'
p2694
F117415.0
sS'51710'
p2695
F242742.0
sS'02164'
p2696
F1592.0
sS'48199'
p2697
F57602.0
sS'51087'
p2698
F330818.0
sS'39127'
p2699
F36134.0
sS'51085'
p2700
F107766.0
sS'39125'
p2701
F18672.0
sS'51083'
p2702
F33911.0
sS'39123'
p2703
F40525.0
sS'51081'
p2704
F11336.0
sS'39121'
p2705
F14424.0
sS'31155'
p2706
F21578.0
sS'51089'
p2707
F50557.0
sS'37111'
p2708
F45756.0
sS'25005'
p2709
F565217.0
sS'25007'
p2710
F17332.0
sS'25001'
p2711
F212990.0
sS'21019'
p2712
F46718.0
sS'25003'
p2713
F124944.0
sS'21017'
p2714
F19788.0
sS'21015'
p2715
F133581.0
sS'21013'
p2716
F26032.0
sS'25009'
p2717
F789034.0
sS'21011'
p2718
F12500.0
sS'22063'
p2719
F140789.0
sS'22061'
p2720
F46742.0
sS'22067'
p2721
F24874.0
sS'22065'
p2722
F10951.0
sS'51001'
p2723
F32316.0
sS'22069'
p2724
F38158.0
sS'06043'
p2725
F17203.0
sS'53029'
p2726
F85141.0
sS'06041'
p2727
F258826.0
sS'49009'
p2728
F950.0
sS'06047'
p2729
F277680.0
sS'06045'
p2730
F86749.0
sS'48389'
p2731
F15976.0
sS'46119'
p2732
F1391.0
sS'48197'
p2733
F3933.0
sS'06049'
p2734
F8841.0
sS'51660'
p2735
F53016.0
sS'31153'
p2736
F187196.0
sS'56033'
p2737
F30485.0
sS'56031'
p2738
F8393.0
sS'56037'
p2739
F42343.0
sS'56035'
p2740
F9831.0
sS'56039'
p2741
F23464.0
sS'21169'
p2742
F10071.0
sS'32031'
p2743
F471519.0
sS'32033'
p2744
F9580.0
sS'21163'
p2745
F28572.0
sS'21161'
p2746
F17070.0
sS'21167'
p2747
F21933.0
sS'21165'
p2748
F6489.0
sS'48195'
p2749
F5399.0
sS'49031'
p2750
F1479.0
sS'51049'
p2751
F9932.0
sS'48355'
p2752
F362294.0
sS'46029'
p2753
F28009.0
sS'31151'
p2754
F14224.0
sS'49039'
p2755
F30939.0
sS'42079'
p2756
F317417.0
sS'46025'
p2757
F3736.0
sS'42077'
p2758
F369318.0
sS'46027'
p2759
F14070.0
sS'42075'
p2760
F141793.0
sS'46021'
p2761
F1376.0
sS'42073'
p2762
F85512.0
sS'46023'
p2763
F9292.0
sS'42071'
p2764
F545724.0
sS'20169'
p2765
F54224.0
sS'48349'
p2766
F50113.0
sS'20161'
p2767
F74232.0
sS'20163'
p2768
F4920.0
sS'20165'
p2769
F3036.0
sS'20167'
p2770
F6856.0
sS'51043'
p2771
F14619.0
sS'17019'
p2772
F209689.0
sS'48353'
p2773
F14714.0
sS'51590'
p2774
F40044.0
sS'17013'
p2775
F4739.0
sS'17011'
p2776
F32628.0
sS'17017'
p2777
F12147.0
sS'17015'
p2778
F14305.0
sS'48193'
p2779
F8461.0
sS'55035'
p2780
F104646.0
sS'17167'
p2781
F194672.0
sS'51047'
p2782
F52605.0
sS'51017'
p2783
F4147.0
sS'48491'
p2784
F590551.0
sS'55033'
p2785
F45368.0
sS'26005'
p2786
F118081.0
sS'05065'
p2787
F13629.0
sS'26007'
p2788
F28405.0
sS'05067'
p2789
F16719.0
sS'26001'
p2790
F10405.0
sS'05061'
p2791
F13202.0
sS'26003'
p2792
F9108.0
sS'05063'
p2793
F37825.0
sS'53009'
p2794
F77331.0
sS'55049'
p2795
F23678.0
sS'02282'
p2796
F579.0
sS'26009'
p2797
F23324.0
sS'05069'
p2798
F66824.0
sS'48505'
p2799
F14179.0
sS'45049'
p2800
F19222.0
sS'48501'
p2801
F8713.0
sS'48503'
p2802
F18010.0
sS'45043'
p2803
F62680.0
sS'45041'
p2804
F138293.0
sS'45047'
p2805
F70811.0
sS'45045'
p2806
F523542.0
sS'51750'
p2807
F18249.0
sS'48499'
p2808
F45539.0
sS'37021'
p2809
F261191.0
sS'13141'
p2810
F8457.0
sS'37023'
p2811
F90485.0
sS'13143'
p2812
F29792.0
sS'37025'
p2813
F216453.0
sS'13145'
p2814
F35236.0
sS'37027'
p2815
F82178.0
sS'13147'
p2816
F26205.0
sS'17113'
p2817
F171517.0
sS'01007'
p2818
F22394.0
sS'01005'
p2819
F24686.0
sS'01003'
p2820
F223234.0
sS'01001'
p2821
F55869.0
sS'42107'
p2822
F141359.0
sS'42105'
p2823
F16526.0
sS'36049'
p2824
F26296.0
sS'42101'
p2825
F1584064.0
sS'36045'
p2826
F109834.0
sS'17169'
p2827
F6768.0
sS'36041'
p2828
F4416.0
sS'36043'
p2829
F61319.0
sS'38069'
p2830
F3975.0
sS'48165'
p2831
F21492.0
sS'48163'
p2832
F20306.0
sS'48161'
p2833
F19717.0
sS'38061'
p2834
F10545.0
sS'38063'
p2835
F2879.0
sS'38065'
p2836
F1959.0
sS'38067'
p2837
F6801.0
sS'20187'
p2838
F2006.0
sS'20185'
p2839
F4156.0
sS'20183'
p2840
F3583.0
sS'20181'
p2841
F5917.0
sS'20189'
p2842
F5485.0
sS'41037'
p2843
F7869.0
sS'40039'
p2844
F29003.0
sS'41035'
p2845
F68238.0
sS'41033'
p2846
F87487.0
sS'13039'
p2847
F54666.0
sS'41031'
p2848
F24658.0
sS'01133'
p2849
F23629.0
sS'01131'
p2850
F10373.0
sS'13031'
p2851
F79608.0
sS'41039'
p2852
F382067.0
sS'13033'
p2853
F22383.0
sS'18057'
p2854
F338011.0
sS'18055'
p2855
F31922.0
sS'48095'
p2856
F2726.0
sS'18053'
p2857
F65769.0
sS'18051'
p2858
F33659.0
sS'18059'
p2859
F78168.0
sS'31163'
p2860
F3001.0
sS'29017'
p2861
F12133.0
sS'28019'
p2862
F8210.0
sS'29015'
p2863
F19443.0
sS'29013'
p2864
F16172.0
sS'29011'
p2865
F11754.0
sS'28011'
p2866
F30628.0
sS'28013'
p2867
F14361.0
sS'28015'
p2868
F9947.0
sS'29019'
p2869
F180463.0
sS'28017'
p2870
F17103.0
sS'37159'
p2871
F142088.0
sS'08035'
p2872
F351154.0
sS'08037'
p2873
F55127.0
sS'08031'
p2874
F727211.0
sS'08033'
p2875
F2055.0
sS'37151'
p2876
F143667.0
sS'37153'
p2877
F44829.0
sS'37155'
p2878
F130625.0
sS'08039'
p2879
F26729.0
sS'37157'
p2880
F91010.0
sS'53037'
p2881
F47935.0
sS'18123'
p2882
F19169.0
sS'18121'
p2883
F16937.0
sS'18127'
p2884
F170389.0
sS'18125'
p2885
F12389.0
sS'51520'
p2886
F16762.0
sS'31161'
p2887
F5246.0
sS'18129'
p2888
F25427.0
sS'55041'
p2889
F9004.0
sS'29163'
p2890
F18302.0
sS'38087'
p2891
F750.0
sS'29161'
p2892
F44573.0
sS'38085'
p2893
F4230.0
sS'29167'
p2894
F32149.0
sS'38083'
p2895
F1315.0
sS'29165'
p2896
F104418.0
sS'38081'
p2897
F3898.0
sS'30095'
p2898
F9642.0
sS'40121'
p2899
F43654.0
sS'29169'
p2900
F52607.0
sS'30091'
p2901
F3309.0
sS'30093'
p2902
F34915.0
sS'38089'
p2903
F31489.0
sS'45059'
p2904
F67493.0
sS'47189'
p2905
F144657.0
sS'48453'
p2906
F1273954.0
sS'47185'
p2907
F27345.0
sS'47187'
p2908
F238412.0
sS'49007'
p2909
F20463.0
sS'47181'
p2910
F16673.0
sS'47183'
p2911
F33328.0
sS'51183'
p2912
F11159.0
sS'41009'
p2913
F52354.0
sS'31167'
p2914
F5920.0
sS'48457'
p2915
F21672.0
sS'28161'
p2916
F12108.0
sS'28163'
p2917
F29690.0
sS'48455'
p2918
F14651.0
sS'40127'
p2919
F11096.0
sS'39013'
p2920
F67006.0
sS'48031'
p2921
F11931.0
sS'22101'
p2922
F49348.0
sS'22103'
p2923
F260419.0
sS'19099'
p2924
F37185.0
sS'22107'
p2925
F4334.0
sS'22109'
p2926
F110461.0
sS'16045'
p2927
F18112.0
sS'19091'
p2928
F9558.0
sS'19093'
p2929
F6860.0
sS'31165'
p2930
F1166.0
sS'41005'
p2931
F418187.0
sS'51700'
p2932
F179225.0
sS'44001'
p2933
F48479.0
sS'02110'
p2934
F31974.0
sS'39113'
p2935
F531687.0
sS'51091'
p2936
F2190.0
sS'32510'
p2937
F55916.0
sS'51093'
p2938
F37109.0
sS'39117'
p2939
F35328.0
sS'51095'
p2940
F76523.0
sS'39115'
p2941
F14508.0
sS'51097'
p2942
F7025.0
sS'51099'
p2943
F26836.0
sS'39119'
p2944
F86215.0
sS'39019'
p2945
F26914.0
sS'21009'
p2946
F44249.0
sS'21001'
p2947
F19202.0
sS'21003'
p2948
F21315.0
sS'21005'
p2949
F22747.0
sS'21007'
p2950
F7888.0
sS'48357'
p2951
F9836.0
sS'22079'
p2952
F129648.0
sS'22075'
p2953
F23197.0
sS'22077'
p2954
F21730.0
sS'22071'
p2955
F390144.0
sS'22073'
p2956
F153279.0
sS'46102'
p2957
F14177.0
sS'46103'
p2958
F113775.0
sS'46101'
p2959
F6576.0
sS'06059'
p2960
F3175692.0
sS'46105'
p2961
F2865.0
sS'06055'
p2962
F137744.0
sS'06057'
p2963
F99755.0
sS'06051'
p2964
F14444.0
sS'06053'
p2965
F434061.0
sS'27165'
p2966
F10897.0
sS'53017'
p2967
F43429.0
sS'27167'
p2968
F6207.0
sS'27161'
p2969
F18612.0
sS'27163'
p2970
F262440.0
sS'27169'
p2971
F50484.0
sS'21175'
p2972
F13309.0
sS'53043'
p2973
F10939.0
sS'21177'
p2974
F30622.0
sS'21171'
p2975
F10650.0
sS'21173'
p2976
F28157.0
sS'51067'
p2977
F56042.0
sS'56025'
p2978
F79858.0
sS'56027'
p2979
F2356.0
sS'21179'
p2980
F46233.0
sS'56023'
p2981
F19830.0
sS'32027'
p2982
F6725.0
sS'32023'
p2983
F46523.0
sS'30087'
p2984
F8937.0
sS'13153'
p2985
F157863.0
sS'32029'
p2986
F4123.0
sS'30085'
p2987
F11004.0
sS'53015'
p2988
F110593.0
sS'30083'
p2989
F10803.0
sS'49029'
p2990
F12124.0
sS'42049'
p2991
F269728.0
sS'46039'
p2992
F4351.0
sS'42043'
p2993
F278299.0
sS'26163'
p2994
F1749343.0
sS'42041'
p2995
F253370.0
sS'26161'
p2996
F367601.0
sS'42047'
p2997
F29910.0
sS'46033'
p2998
F8972.0
sS'42045'
p2999
F566747.0
sS'26165'
p3000
F33631.0
sS'17027'
p3001
F37562.0
sS'17025'
p3002
F13184.0
sS'17023'
p3003
F15441.0
sS'17021'
p3004
F32304.0
sS'05125'
p3005
F122437.0
sS'05127'
p3006
F10281.0
sS'05121'
p3007
F17958.0
sS'17029'
p3008
F50621.0
sS'48225'
p3009
F22968.0
sS'13159'
p3010
F14219.0
sS'51820'
p3011
F22630.0
sS'47053'
p3012
F49133.0
sS'48081'
p3013
F3387.0
sS'42115'
p3014
F40328.0
sS'36051'
p3015
F62914.0
sS'05011'
p3016
F10763.0
sS'26017'
p3017
F103126.0
sS'05013'
p3018
F5189.0
sS'26015'
p3019
F61550.0
sS'05015'
p3020
F28380.0
sS'26013'
p3021
F8209.0
sS'05017'
p3022
F10118.0
sS'26011'
p3023
F14883.0
sS'05019'
p3024
F22320.0
sS'42111'
p3025
F73447.0
sS'02290'
p3026
F5230.0
sS'53019'
p3027
F7627.0
sS'26019'
p3028
F17766.0
sS'42113'
p3029
F6066.0
sS'42033'
p3030
F79255.0
sS'48227'
p3031
F36664.0
sS'46063'
p3032
F1298.0
sS'29229'
p3033
F18289.0
sS'36113'
p3034
F63944.0
sS'29221'
p3035
F24730.0
sS'29223'
p3036
F12873.0
sS'29225'
p3037
F39592.0
sS'29227'
p3038
F2013.0
sS'37033'
p3039
F22604.0
sS'01039'
p3040
F37049.0
sS'36111'
p3041
F177573.0
sS'37037'
p3042
F74470.0
sS'37035'
p3043
F159551.0
sS'01033'
p3044
F55241.0
sS'42119'
p3045
F44923.0
sS'01031'
p3046
F52342.0
sS'37039'
p3047
F28612.0
sS'01037'
p3048
F10663.0
sS'01035'
p3049
F12067.0
sS'36117'
p3050
F89918.0
sS'36039'
p3051
F47188.0
sS'46069'
p3052
F1301.0
sS'42131'
p3053
F26794.0
sS'48191'
p3054
F2964.0
sS'36031'
p3055
F36885.0
sS'36033'
p3056
F50022.0
sS'36115'
p3057
F61204.0
sS'36035'
p3058
F53383.0
sS'36037'
p3059
F57280.0
sS'46109'
p3060
F10394.0
sS'54099'
p3061
F39402.0
sS'54093'
p3062
F6839.0
sS'54091'
p3063
F16695.0
sS'54097'
p3064
F24176.0
sS'54095'
p3065
F8591.0
sS'48153'
p3066
F5712.0
sS'48151'
p3067
F3830.0
sS'48157'
p3068
F811688.0
sS'48155'
p3069
F1155.0
sS'48085'
p3070
F1034730.0
sS'48405'
p3071
F8237.0
sS'48159'
p3072
F10725.0
sS'48401'
p3073
F54406.0
sS'48403'
p3074
F10542.0
sS'01107'
p3075
F19930.0
sS'01105'
p3076
F8923.0
sS'01103'
p3077
F119679.0
sS'01101'
p3078
F226486.0
sS'01109'
p3079
F33114.0
sS'13049'
p3080
F13392.0
sS'41021'
p3081
F1912.0
sS'45075'
p3082
F86175.0
sS'41023'
p3083
F7199.0
sS'45073'
p3084
F79546.0
sS'41025'
p3085
F7393.0
sS'45071'
p3086
F38440.0
sS'41027'
p3087
F23382.0
sS'48089'
p3088
F21493.0
sS'41029'
p3089
F220944.0
sS'13043'
p3090
F10803.0
sS'13045'
p3091
F119992.0
sS'13047'
p3092
F67580.0
sS'18041'
p3093
F23102.0
sS'18043'
p3094
F78522.0
sS'48223'
p3095
F37084.0
sS'18045'
p3096
F16346.0
sS'18047'
p3097
F22758.0
sS'18049'
p3098
F19974.0
sS'48087'
p3099
F2920.0
sS'55078'
p3100
F4556.0
sS'29001'
p3101
F25343.0
sS'29003'
p3102
F17712.0
sS'29005'
p3103
F5143.0
sS'29007'
p3104
F25388.0
sS'29009'
p3105
F35789.0
sS'31171'
p3106
F722.0
sS'08041'
p3107
F720403.0
sS'08043'
p3108
F47839.0
sS'37149'
p3109
F20724.0
sS'08045'
p3110
F60061.0
sS'08047'
p3111
F6243.0
sS'51011'
p3112
F15911.0
sS'08049'
p3113
F15734.0
sS'37143'
p3114
F13463.0
sS'37141'
p3115
F63060.0
sS'37147'
p3116
F180742.0
sS'37145'
p3117
F39490.0
sS'51013'
p3118
F236842.0
sS'31139'
p3119
F7148.0
sS'48173'
p3120
F1409.0
sS'51025'
p3121
F16231.0
sS'31135'
p3122
F2891.0
sS'31137'
p3123
F9034.0
sS'31131'
p3124
F16012.0
sS'31133'
p3125
F2613.0
sS'51015'
p3126
F75558.0
sS'18139'
p3127
F16581.0
sS'18135'
p3128
F24665.0
sS'18137'
p3129
F28324.0
sS'18131'
p3130
F12353.0
sS'18133'
p3131
F37576.0
sS'31173'
p3132
F7224.0
sS'53059'
p3133
F12083.0
sS'29179'
p3134
F6270.0
sS'30089'
p3135
F12113.0
sS'29175'
p3136
F24748.0
sS'29177'
p3137
F23018.0
sS'29171'
p3138
F4696.0
sS'29173'
p3139
F10309.0
sS'35006'
p3140
F26675.0
sS'17119'
p3141
F262966.0
sS'31175'
p3142
F4158.0
s.